
AXIS_X.elf:     file format elf32-avr

Sections:
Idx Name          Size      VMA       LMA       File off  Algn
  0 .data         00000008  00800100  00002094  00002128  2**0
                  CONTENTS, ALLOC, LOAD, DATA
  1 .text         00002094  00000000  00000000  00000094  2**1
                  CONTENTS, ALLOC, LOAD, READONLY, CODE
  2 .bss          00000010  00800108  00800108  00002130  2**0
                  ALLOC
  3 .stab         000006cc  00000000  00000000  00002130  2**2
                  CONTENTS, READONLY, DEBUGGING
  4 .stabstr      00000097  00000000  00000000  000027fc  2**0
                  CONTENTS, READONLY, DEBUGGING
  5 .comment      0000002f  00000000  00000000  00002893  2**0
                  CONTENTS, READONLY
  6 .debug_aranges 000002e8  00000000  00000000  000028c2  2**0
                  CONTENTS, READONLY, DEBUGGING
  7 .debug_info   00005546  00000000  00000000  00002baa  2**0
                  CONTENTS, READONLY, DEBUGGING
  8 .debug_abbrev 000018b6  00000000  00000000  000080f0  2**0
                  CONTENTS, READONLY, DEBUGGING
  9 .debug_line   00002065  00000000  00000000  000099a6  2**0
                  CONTENTS, READONLY, DEBUGGING
 10 .debug_frame  00000738  00000000  00000000  0000ba0c  2**2
                  CONTENTS, READONLY, DEBUGGING
 11 .debug_str    0000093b  00000000  00000000  0000c144  2**0
                  CONTENTS, READONLY, DEBUGGING
 12 .debug_loc    000029ff  00000000  00000000  0000ca7f  2**0
                  CONTENTS, READONLY, DEBUGGING
 13 .debug_ranges 00000210  00000000  00000000  0000f47e  2**0
                  CONTENTS, READONLY, DEBUGGING

Disassembly of section .text:

00000000 <__vectors>:
       0:	31 c1       	rjmp	.+610    	; 0x264 <__ctors_end>
       2:	00 00       	nop
       4:	4e c1       	rjmp	.+668    	; 0x2a2 <__bad_interrupt>
       6:	00 00       	nop
       8:	4c c1       	rjmp	.+664    	; 0x2a2 <__bad_interrupt>
       a:	00 00       	nop
       c:	4a c1       	rjmp	.+660    	; 0x2a2 <__bad_interrupt>
       e:	00 00       	nop
      10:	48 c1       	rjmp	.+656    	; 0x2a2 <__bad_interrupt>
      12:	00 00       	nop
      14:	46 c1       	rjmp	.+652    	; 0x2a2 <__bad_interrupt>
      16:	00 00       	nop
      18:	44 c1       	rjmp	.+648    	; 0x2a2 <__bad_interrupt>
      1a:	00 00       	nop
      1c:	42 c1       	rjmp	.+644    	; 0x2a2 <__bad_interrupt>
      1e:	00 00       	nop
      20:	40 c1       	rjmp	.+640    	; 0x2a2 <__bad_interrupt>
      22:	00 00       	nop
      24:	3e c1       	rjmp	.+636    	; 0x2a2 <__bad_interrupt>
      26:	00 00       	nop
      28:	3c c1       	rjmp	.+632    	; 0x2a2 <__bad_interrupt>
      2a:	00 00       	nop
      2c:	3a c1       	rjmp	.+628    	; 0x2a2 <__bad_interrupt>
      2e:	00 00       	nop
      30:	38 c1       	rjmp	.+624    	; 0x2a2 <__bad_interrupt>
      32:	00 00       	nop
      34:	36 c1       	rjmp	.+620    	; 0x2a2 <__bad_interrupt>
      36:	00 00       	nop
      38:	0c 94 40 0a 	jmp	0x1480	; 0x1480 <__vector_14>
      3c:	32 c1       	rjmp	.+612    	; 0x2a2 <__bad_interrupt>
      3e:	00 00       	nop
      40:	0c 94 19 0a 	jmp	0x1432	; 0x1432 <__vector_16>
      44:	2e c1       	rjmp	.+604    	; 0x2a2 <__bad_interrupt>
      46:	00 00       	nop
      48:	2c c1       	rjmp	.+600    	; 0x2a2 <__bad_interrupt>
      4a:	00 00       	nop
      4c:	2a c1       	rjmp	.+596    	; 0x2a2 <__bad_interrupt>
      4e:	00 00       	nop
      50:	28 c1       	rjmp	.+592    	; 0x2a2 <__bad_interrupt>
      52:	00 00       	nop
      54:	26 c1       	rjmp	.+588    	; 0x2a2 <__bad_interrupt>
      56:	00 00       	nop
      58:	24 c1       	rjmp	.+584    	; 0x2a2 <__bad_interrupt>
      5a:	00 00       	nop
      5c:	22 c1       	rjmp	.+580    	; 0x2a2 <__bad_interrupt>
      5e:	00 00       	nop
      60:	20 c1       	rjmp	.+576    	; 0x2a2 <__bad_interrupt>
      62:	00 00       	nop
      64:	1e c1       	rjmp	.+572    	; 0x2a2 <__bad_interrupt>
      66:	00 00       	nop
      68:	1c c1       	rjmp	.+568    	; 0x2a2 <__bad_interrupt>
      6a:	00 00       	nop
      6c:	1a c1       	rjmp	.+564    	; 0x2a2 <__bad_interrupt>
      6e:	00 00       	nop
      70:	18 c1       	rjmp	.+560    	; 0x2a2 <__bad_interrupt>
      72:	00 00       	nop
      74:	16 c1       	rjmp	.+556    	; 0x2a2 <__bad_interrupt>
      76:	00 00       	nop
      78:	0c 94 3d 0f 	jmp	0x1e7a	; 0x1e7a <__vector_30>
      7c:	0c 94 66 0f 	jmp	0x1ecc	; 0x1ecc <__vector_31>
      80:	10 c1       	rjmp	.+544    	; 0x2a2 <__bad_interrupt>
      82:	00 00       	nop
      84:	0e c1       	rjmp	.+540    	; 0x2a2 <__bad_interrupt>
      86:	00 00       	nop
      88:	0c c1       	rjmp	.+536    	; 0x2a2 <__bad_interrupt>
	...

0000008c <_MENU_TOL_>:
      8c:	55 50 20 20 20 20 20 44 4f 57 4e 20 20 20 53 45     UP     DOWN   SE
      9c:	4c 45 43 54 00                                      LECT.

000000a1 <_NULL_>:
      a1:	20 20 20 20 20 20 20 20 20 20 20 20 20 20 20 20                     
      b1:	20 20 20 20 00                                          .

000000b6 <_PROFILE_90_TIT_>:
      b6:	20 20 20 20 50 52 4f 46 49 4c 45 20 20 20 20 39         PROFILE    9
      c6:	20 20 20 20 00                                          .

000000cb <_PROFILE_80_TIT_>:
      cb:	20 20 20 20 50 52 4f 46 49 4c 45 20 20 20 20 38         PROFILE    8
      db:	20 20 20 20 00                                          .

000000e0 <_PROFILE_70_TIT_>:
      e0:	20 20 20 20 50 52 4f 46 49 4c 45 20 20 20 20 37         PROFILE    7
      f0:	20 20 20 20 00                                          .

000000f5 <_PROFILE_60_TIT_>:
      f5:	20 20 20 20 50 52 4f 46 49 4c 45 20 20 20 20 36         PROFILE    6
     105:	20 20 20 20 00                                          .

0000010a <_PROFILE_50_TIT_>:
     10a:	20 20 20 20 50 52 4f 46 49 4c 45 20 20 20 20 35         PROFILE    5
     11a:	20 20 20 20 00                                          .

0000011f <_PROFILE_40_TIT_>:
     11f:	20 20 20 20 50 52 4f 46 49 4c 45 20 20 20 20 34         PROFILE    4
     12f:	20 20 20 20 00                                          .

00000134 <_PROFILE_30_TIT_>:
     134:	20 20 20 20 50 52 4f 46 49 4c 45 20 20 20 20 33         PROFILE    3
     144:	20 20 20 20 00                                          .

00000149 <_PROFILE_20_TIT_>:
     149:	20 20 20 20 50 52 4f 46 49 4c 45 20 20 20 20 32         PROFILE    2
     159:	20 20 20 20 00                                          .

0000015e <_PROFILE_10_TIT_>:
     15e:	20 20 20 20 50 52 4f 46 49 4c 45 20 20 20 20 31         PROFILE    1
     16e:	20 20 20 20 00                                          .

00000173 <_WORK_90_TIT_>:
     173:	20 20 57 4f 52 4b 20 20 50 52 4f 46 49 4c 45 20       WORK  PROFILE 
     183:	20 39 20 20 00                                       9  .

00000188 <_WORK_80_TIT_>:
     188:	20 20 57 4f 52 4b 20 20 50 52 4f 46 49 4c 45 20       WORK  PROFILE 
     198:	20 38 20 20 00                                       8  .

0000019d <_WORK_70_TIT_>:
     19d:	20 20 57 4f 52 4b 20 20 50 52 4f 46 49 4c 45 20       WORK  PROFILE 
     1ad:	20 37 20 20 00                                       7  .

000001b2 <_WORK_60_TIT_>:
     1b2:	20 20 57 4f 52 4b 20 20 50 52 4f 46 49 4c 45 20       WORK  PROFILE 
     1c2:	20 36 20 20 00                                       6  .

000001c7 <_WORK_50_TIT_>:
     1c7:	20 20 57 4f 52 4b 20 20 50 52 4f 46 49 4c 45 20       WORK  PROFILE 
     1d7:	20 35 20 20 00                                       5  .

000001dc <_WORK_40_TIT_>:
     1dc:	20 20 57 4f 52 4b 20 20 50 52 4f 46 49 4c 45 20       WORK  PROFILE 
     1ec:	20 34 20 20 00                                       4  .

000001f1 <_WORK_30_TIT_>:
     1f1:	20 20 57 4f 52 4b 20 20 50 52 4f 46 49 4c 45 20       WORK  PROFILE 
     201:	20 33 20 20 00                                       3  .

00000206 <_WORK_20_TIT_>:
     206:	20 20 57 4f 52 4b 20 20 50 52 4f 46 49 4c 45 20       WORK  PROFILE 
     216:	20 32 20 20 00                                       2  .

0000021b <_WORK_10_TIT_>:
     21b:	20 20 57 4f 52 4b 20 20 50 52 4f 46 49 4c 45 20       WORK  PROFILE 
     22b:	20 31 20 20 00                                       1  .

00000230 <_MM_>:
     230:	28 6d 6d 29 00                                      (mm).

00000235 <_RP_MM_>:
     235:	28 64 65 67 2f 6d 6d 29 00                          (deg/mm).

0000023e <_MM_MIN_>:
     23e:	28 6d 6d 2f 6d 29 00                                (mm/m).

00000245 <_LENGLH_>:
     245:	4c 45 4e 47 4c 48 20 3d 00                          LENGLH =.

0000024e <_SPEED_2_>:
     24e:	53 50 45 45 44 32 20 00                             SPEED2 .

00000256 <_SPEED_1_>:
     256:	53 50 45 45 44 31 20 00                             SPEED1 .

0000025e <_DECIMAL_>:
     25e:	2c 00                                               ,.

00000260 <_cel2_>:
     260:	3c 00                                               <.

00000262 <_cel1_>:
     262:	3e 00                                               >.

00000264 <__ctors_end>:
     264:	11 24       	eor	r1, r1
     266:	1f be       	out	0x3f, r1	; 63
     268:	cf ef       	ldi	r28, 0xFF	; 255
     26a:	d0 e1       	ldi	r29, 0x10	; 16
     26c:	de bf       	out	0x3e, r29	; 62
     26e:	cd bf       	out	0x3d, r28	; 61

00000270 <__do_clear_bss>:
     270:	21 e0       	ldi	r18, 0x01	; 1
     272:	a8 e0       	ldi	r26, 0x08	; 8
     274:	b1 e0       	ldi	r27, 0x01	; 1
     276:	01 c0       	rjmp	.+2      	; 0x27a <.do_clear_bss_start>

00000278 <.do_clear_bss_loop>:
     278:	1d 92       	st	X+, r1

0000027a <.do_clear_bss_start>:
     27a:	a8 31       	cpi	r26, 0x18	; 24
     27c:	b2 07       	cpc	r27, r18
     27e:	e1 f7       	brne	.-8      	; 0x278 <.do_clear_bss_loop>

00000280 <__do_copy_data>:
     280:	11 e0       	ldi	r17, 0x01	; 1
     282:	a0 e0       	ldi	r26, 0x00	; 0
     284:	b1 e0       	ldi	r27, 0x01	; 1
     286:	e4 e9       	ldi	r30, 0x94	; 148
     288:	f0 e2       	ldi	r31, 0x20	; 32
     28a:	00 e0       	ldi	r16, 0x00	; 0
     28c:	0b bf       	out	0x3b, r16	; 59
     28e:	02 c0       	rjmp	.+4      	; 0x294 <__do_copy_data+0x14>
     290:	07 90       	elpm	r0, Z+
     292:	0d 92       	st	X+, r0
     294:	a8 30       	cpi	r26, 0x08	; 8
     296:	b1 07       	cpc	r27, r17
     298:	d9 f7       	brne	.-10     	; 0x290 <__do_copy_data+0x10>
     29a:	0e 94 78 0a 	call	0x14f0	; 0x14f0 <main>
     29e:	0c 94 48 10 	jmp	0x2090	; 0x2090 <_exit>

000002a2 <__bad_interrupt>:
     2a2:	ae ce       	rjmp	.-676    	; 0x0 <__vectors>

000002a4 <__fixunssfsi>:
     2a4:	cf 92       	push	r12
     2a6:	df 92       	push	r13
     2a8:	ef 92       	push	r14
     2aa:	ff 92       	push	r15
     2ac:	0f 93       	push	r16
     2ae:	1f 93       	push	r17
     2b0:	6b 01       	movw	r12, r22
     2b2:	7c 01       	movw	r14, r24
     2b4:	20 e0       	ldi	r18, 0x00	; 0
     2b6:	30 e0       	ldi	r19, 0x00	; 0
     2b8:	40 e0       	ldi	r20, 0x00	; 0
     2ba:	5f e4       	ldi	r21, 0x4F	; 79
     2bc:	4e d3       	rcall	.+1692   	; 0x95a <__gesf2>
     2be:	87 fd       	sbrc	r24, 7
     2c0:	0c c0       	rjmp	.+24     	; 0x2da <__fixunssfsi+0x36>
     2c2:	20 e0       	ldi	r18, 0x00	; 0
     2c4:	30 e0       	ldi	r19, 0x00	; 0
     2c6:	40 e0       	ldi	r20, 0x00	; 0
     2c8:	5f e4       	ldi	r21, 0x4F	; 79
     2ca:	c7 01       	movw	r24, r14
     2cc:	b6 01       	movw	r22, r12
     2ce:	97 d1       	rcall	.+814    	; 0x5fe <__subsf3>
     2d0:	70 d3       	rcall	.+1760   	; 0x9b2 <__fixsfsi>
     2d2:	8b 01       	movw	r16, r22
     2d4:	9c 01       	movw	r18, r24
     2d6:	30 58       	subi	r19, 0x80	; 128
     2d8:	05 c0       	rjmp	.+10     	; 0x2e4 <__fixunssfsi+0x40>
     2da:	c7 01       	movw	r24, r14
     2dc:	b6 01       	movw	r22, r12
     2de:	69 d3       	rcall	.+1746   	; 0x9b2 <__fixsfsi>
     2e0:	8b 01       	movw	r16, r22
     2e2:	9c 01       	movw	r18, r24
     2e4:	b8 01       	movw	r22, r16
     2e6:	c9 01       	movw	r24, r18
     2e8:	1f 91       	pop	r17
     2ea:	0f 91       	pop	r16
     2ec:	ff 90       	pop	r15
     2ee:	ef 90       	pop	r14
     2f0:	df 90       	pop	r13
     2f2:	cf 90       	pop	r12
     2f4:	08 95       	ret

000002f6 <_fpadd_parts>:
     2f6:	a4 e0       	ldi	r26, 0x04	; 4
     2f8:	b0 e0       	ldi	r27, 0x00	; 0
     2fa:	e1 e8       	ldi	r30, 0x81	; 129
     2fc:	f1 e0       	ldi	r31, 0x01	; 1
     2fe:	0c 94 13 10 	jmp	0x2026	; 0x2026 <__prologue_saves__+0x4>
     302:	7c 01       	movw	r14, r24
     304:	6a 01       	movw	r12, r20
     306:	fc 01       	movw	r30, r24
     308:	80 81       	ld	r24, Z
     30a:	82 30       	cpi	r24, 0x02	; 2
     30c:	08 f4       	brcc	.+2      	; 0x310 <_fpadd_parts+0x1a>
     30e:	4a c1       	rjmp	.+660    	; 0x5a4 <_fpadd_parts+0x2ae>
     310:	fb 01       	movw	r30, r22
     312:	90 81       	ld	r25, Z
     314:	92 30       	cpi	r25, 0x02	; 2
     316:	08 f4       	brcc	.+2      	; 0x31a <_fpadd_parts+0x24>
     318:	42 c1       	rjmp	.+644    	; 0x59e <_fpadd_parts+0x2a8>
     31a:	84 30       	cpi	r24, 0x04	; 4
     31c:	79 f4       	brne	.+30     	; 0x33c <_fpadd_parts+0x46>
     31e:	94 30       	cpi	r25, 0x04	; 4
     320:	09 f0       	breq	.+2      	; 0x324 <_fpadd_parts+0x2e>
     322:	40 c1       	rjmp	.+640    	; 0x5a4 <_fpadd_parts+0x2ae>
     324:	f7 01       	movw	r30, r14
     326:	91 81       	ldd	r25, Z+1	; 0x01
     328:	fb 01       	movw	r30, r22
     32a:	81 81       	ldd	r24, Z+1	; 0x01
     32c:	98 17       	cp	r25, r24
     32e:	09 f4       	brne	.+2      	; 0x332 <_fpadd_parts+0x3c>
     330:	39 c1       	rjmp	.+626    	; 0x5a4 <_fpadd_parts+0x2ae>
     332:	a0 e0       	ldi	r26, 0x00	; 0
     334:	ea 2e       	mov	r14, r26
     336:	a1 e0       	ldi	r26, 0x01	; 1
     338:	fa 2e       	mov	r15, r26
     33a:	34 c1       	rjmp	.+616    	; 0x5a4 <_fpadd_parts+0x2ae>
     33c:	94 30       	cpi	r25, 0x04	; 4
     33e:	09 f4       	brne	.+2      	; 0x342 <_fpadd_parts+0x4c>
     340:	2e c1       	rjmp	.+604    	; 0x59e <_fpadd_parts+0x2a8>
     342:	92 30       	cpi	r25, 0x02	; 2
     344:	91 f4       	brne	.+36     	; 0x36a <_fpadd_parts+0x74>
     346:	82 30       	cpi	r24, 0x02	; 2
     348:	09 f0       	breq	.+2      	; 0x34c <_fpadd_parts+0x56>
     34a:	2c c1       	rjmp	.+600    	; 0x5a4 <_fpadd_parts+0x2ae>
     34c:	88 e0       	ldi	r24, 0x08	; 8
     34e:	f7 01       	movw	r30, r14
     350:	da 01       	movw	r26, r20
     352:	01 90       	ld	r0, Z+
     354:	0d 92       	st	X+, r0
     356:	8a 95       	dec	r24
     358:	e1 f7       	brne	.-8      	; 0x352 <_fpadd_parts+0x5c>
     35a:	fb 01       	movw	r30, r22
     35c:	81 81       	ldd	r24, Z+1	; 0x01
     35e:	f7 01       	movw	r30, r14
     360:	91 81       	ldd	r25, Z+1	; 0x01
     362:	89 23       	and	r24, r25
     364:	fa 01       	movw	r30, r20
     366:	81 83       	std	Z+1, r24	; 0x01
     368:	1c c1       	rjmp	.+568    	; 0x5a2 <_fpadd_parts+0x2ac>
     36a:	82 30       	cpi	r24, 0x02	; 2
     36c:	09 f4       	brne	.+2      	; 0x370 <_fpadd_parts+0x7a>
     36e:	17 c1       	rjmp	.+558    	; 0x59e <_fpadd_parts+0x2a8>
     370:	f7 01       	movw	r30, r14
     372:	82 81       	ldd	r24, Z+2	; 0x02
     374:	93 81       	ldd	r25, Z+3	; 0x03
     376:	fb 01       	movw	r30, r22
     378:	a2 81       	ldd	r26, Z+2	; 0x02
     37a:	b3 81       	ldd	r27, Z+3	; 0x03
     37c:	f7 01       	movw	r30, r14
     37e:	04 81       	ldd	r16, Z+4	; 0x04
     380:	15 81       	ldd	r17, Z+5	; 0x05
     382:	26 81       	ldd	r18, Z+6	; 0x06
     384:	37 81       	ldd	r19, Z+7	; 0x07
     386:	fb 01       	movw	r30, r22
     388:	84 80       	ldd	r8, Z+4	; 0x04
     38a:	95 80       	ldd	r9, Z+5	; 0x05
     38c:	a6 80       	ldd	r10, Z+6	; 0x06
     38e:	b7 80       	ldd	r11, Z+7	; 0x07
     390:	fc 01       	movw	r30, r24
     392:	ea 1b       	sub	r30, r26
     394:	fb 0b       	sbc	r31, r27
     396:	af 01       	movw	r20, r30
     398:	f7 ff       	sbrs	r31, 7
     39a:	04 c0       	rjmp	.+8      	; 0x3a4 <_fpadd_parts+0xae>
     39c:	44 27       	eor	r20, r20
     39e:	55 27       	eor	r21, r21
     3a0:	4e 1b       	sub	r20, r30
     3a2:	5f 0b       	sbc	r21, r31
     3a4:	40 32       	cpi	r20, 0x20	; 32
     3a6:	51 05       	cpc	r21, r1
     3a8:	0c f0       	brlt	.+2      	; 0x3ac <_fpadd_parts+0xb6>
     3aa:	74 c0       	rjmp	.+232    	; 0x494 <_fpadd_parts+0x19e>
     3ac:	1e 16       	cp	r1, r30
     3ae:	1f 06       	cpc	r1, r31
     3b0:	b4 f5       	brge	.+108    	; 0x41e <_fpadd_parts+0x128>
     3b2:	24 01       	movw	r4, r8
     3b4:	35 01       	movw	r6, r10
     3b6:	04 2e       	mov	r0, r20
     3b8:	04 c0       	rjmp	.+8      	; 0x3c2 <_fpadd_parts+0xcc>
     3ba:	76 94       	lsr	r7
     3bc:	67 94       	ror	r6
     3be:	57 94       	ror	r5
     3c0:	47 94       	ror	r4
     3c2:	0a 94       	dec	r0
     3c4:	d2 f7       	brpl	.-12     	; 0x3ba <_fpadd_parts+0xc4>
     3c6:	49 82       	std	Y+1, r4	; 0x01
     3c8:	5a 82       	std	Y+2, r5	; 0x02
     3ca:	6b 82       	std	Y+3, r6	; 0x03
     3cc:	7c 82       	std	Y+4, r7	; 0x04
     3ce:	41 2c       	mov	r4, r1
     3d0:	51 2c       	mov	r5, r1
     3d2:	32 01       	movw	r6, r4
     3d4:	43 94       	inc	r4
     3d6:	04 c0       	rjmp	.+8      	; 0x3e0 <_fpadd_parts+0xea>
     3d8:	44 0c       	add	r4, r4
     3da:	55 1c       	adc	r5, r5
     3dc:	66 1c       	adc	r6, r6
     3de:	77 1c       	adc	r7, r7
     3e0:	4a 95       	dec	r20
     3e2:	d2 f7       	brpl	.-12     	; 0x3d8 <_fpadd_parts+0xe2>
     3e4:	41 e0       	ldi	r20, 0x01	; 1
     3e6:	44 1a       	sub	r4, r20
     3e8:	51 08       	sbc	r5, r1
     3ea:	61 08       	sbc	r6, r1
     3ec:	71 08       	sbc	r7, r1
     3ee:	48 20       	and	r4, r8
     3f0:	59 20       	and	r5, r9
     3f2:	6a 20       	and	r6, r10
     3f4:	7b 20       	and	r7, r11
     3f6:	81 2c       	mov	r8, r1
     3f8:	91 2c       	mov	r9, r1
     3fa:	54 01       	movw	r10, r8
     3fc:	83 94       	inc	r8
     3fe:	45 28       	or	r4, r5
     400:	46 28       	or	r4, r6
     402:	47 28       	or	r4, r7
     404:	19 f4       	brne	.+6      	; 0x40c <_fpadd_parts+0x116>
     406:	81 2c       	mov	r8, r1
     408:	91 2c       	mov	r9, r1
     40a:	54 01       	movw	r10, r8
     40c:	49 80       	ldd	r4, Y+1	; 0x01
     40e:	5a 80       	ldd	r5, Y+2	; 0x02
     410:	6b 80       	ldd	r6, Y+3	; 0x03
     412:	7c 80       	ldd	r7, Y+4	; 0x04
     414:	84 28       	or	r8, r4
     416:	95 28       	or	r9, r5
     418:	a6 28       	or	r10, r6
     41a:	b7 28       	or	r11, r7
     41c:	46 c0       	rjmp	.+140    	; 0x4aa <_fpadd_parts+0x1b4>
     41e:	ef 2b       	or	r30, r31
     420:	09 f4       	brne	.+2      	; 0x424 <_fpadd_parts+0x12e>
     422:	43 c0       	rjmp	.+134    	; 0x4aa <_fpadd_parts+0x1b4>
     424:	84 0f       	add	r24, r20
     426:	95 1f       	adc	r25, r21
     428:	28 01       	movw	r4, r16
     42a:	39 01       	movw	r6, r18
     42c:	04 2e       	mov	r0, r20
     42e:	04 c0       	rjmp	.+8      	; 0x438 <_fpadd_parts+0x142>
     430:	76 94       	lsr	r7
     432:	67 94       	ror	r6
     434:	57 94       	ror	r5
     436:	47 94       	ror	r4
     438:	0a 94       	dec	r0
     43a:	d2 f7       	brpl	.-12     	; 0x430 <_fpadd_parts+0x13a>
     43c:	49 82       	std	Y+1, r4	; 0x01
     43e:	5a 82       	std	Y+2, r5	; 0x02
     440:	6b 82       	std	Y+3, r6	; 0x03
     442:	7c 82       	std	Y+4, r7	; 0x04
     444:	41 2c       	mov	r4, r1
     446:	51 2c       	mov	r5, r1
     448:	32 01       	movw	r6, r4
     44a:	43 94       	inc	r4
     44c:	04 c0       	rjmp	.+8      	; 0x456 <_fpadd_parts+0x160>
     44e:	44 0c       	add	r4, r4
     450:	55 1c       	adc	r5, r5
     452:	66 1c       	adc	r6, r6
     454:	77 1c       	adc	r7, r7
     456:	4a 95       	dec	r20
     458:	d2 f7       	brpl	.-12     	; 0x44e <_fpadd_parts+0x158>
     45a:	41 e0       	ldi	r20, 0x01	; 1
     45c:	44 1a       	sub	r4, r20
     45e:	51 08       	sbc	r5, r1
     460:	61 08       	sbc	r6, r1
     462:	71 08       	sbc	r7, r1
     464:	40 22       	and	r4, r16
     466:	51 22       	and	r5, r17
     468:	62 22       	and	r6, r18
     46a:	73 22       	and	r7, r19
     46c:	01 e0       	ldi	r16, 0x01	; 1
     46e:	10 e0       	ldi	r17, 0x00	; 0
     470:	20 e0       	ldi	r18, 0x00	; 0
     472:	30 e0       	ldi	r19, 0x00	; 0
     474:	45 28       	or	r4, r5
     476:	46 28       	or	r4, r6
     478:	47 28       	or	r4, r7
     47a:	19 f4       	brne	.+6      	; 0x482 <_fpadd_parts+0x18c>
     47c:	00 e0       	ldi	r16, 0x00	; 0
     47e:	10 e0       	ldi	r17, 0x00	; 0
     480:	98 01       	movw	r18, r16
     482:	49 80       	ldd	r4, Y+1	; 0x01
     484:	5a 80       	ldd	r5, Y+2	; 0x02
     486:	6b 80       	ldd	r6, Y+3	; 0x03
     488:	7c 80       	ldd	r7, Y+4	; 0x04
     48a:	04 29       	or	r16, r4
     48c:	15 29       	or	r17, r5
     48e:	26 29       	or	r18, r6
     490:	37 29       	or	r19, r7
     492:	0b c0       	rjmp	.+22     	; 0x4aa <_fpadd_parts+0x1b4>
     494:	a8 17       	cp	r26, r24
     496:	b9 07       	cpc	r27, r25
     498:	24 f4       	brge	.+8      	; 0x4a2 <_fpadd_parts+0x1ac>
     49a:	81 2c       	mov	r8, r1
     49c:	91 2c       	mov	r9, r1
     49e:	54 01       	movw	r10, r8
     4a0:	04 c0       	rjmp	.+8      	; 0x4aa <_fpadd_parts+0x1b4>
     4a2:	cd 01       	movw	r24, r26
     4a4:	00 e0       	ldi	r16, 0x00	; 0
     4a6:	10 e0       	ldi	r17, 0x00	; 0
     4a8:	98 01       	movw	r18, r16
     4aa:	f7 01       	movw	r30, r14
     4ac:	41 81       	ldd	r20, Z+1	; 0x01
     4ae:	fb 01       	movw	r30, r22
     4b0:	51 81       	ldd	r21, Z+1	; 0x01
     4b2:	45 17       	cp	r20, r21
     4b4:	09 f4       	brne	.+2      	; 0x4b8 <_fpadd_parts+0x1c2>
     4b6:	46 c0       	rjmp	.+140    	; 0x544 <_fpadd_parts+0x24e>
     4b8:	44 23       	and	r20, r20
     4ba:	49 f0       	breq	.+18     	; 0x4ce <_fpadd_parts+0x1d8>
     4bc:	24 01       	movw	r4, r8
     4be:	35 01       	movw	r6, r10
     4c0:	40 1a       	sub	r4, r16
     4c2:	51 0a       	sbc	r5, r17
     4c4:	62 0a       	sbc	r6, r18
     4c6:	73 0a       	sbc	r7, r19
     4c8:	93 01       	movw	r18, r6
     4ca:	82 01       	movw	r16, r4
     4cc:	04 c0       	rjmp	.+8      	; 0x4d6 <_fpadd_parts+0x1e0>
     4ce:	08 19       	sub	r16, r8
     4d0:	19 09       	sbc	r17, r9
     4d2:	2a 09       	sbc	r18, r10
     4d4:	3b 09       	sbc	r19, r11
     4d6:	37 fd       	sbrc	r19, 7
     4d8:	05 c0       	rjmp	.+10     	; 0x4e4 <_fpadd_parts+0x1ee>
     4da:	f6 01       	movw	r30, r12
     4dc:	11 82       	std	Z+1, r1	; 0x01
     4de:	93 83       	std	Z+3, r25	; 0x03
     4e0:	82 83       	std	Z+2, r24	; 0x02
     4e2:	0c c0       	rjmp	.+24     	; 0x4fc <_fpadd_parts+0x206>
     4e4:	41 e0       	ldi	r20, 0x01	; 1
     4e6:	f6 01       	movw	r30, r12
     4e8:	41 83       	std	Z+1, r20	; 0x01
     4ea:	93 83       	std	Z+3, r25	; 0x03
     4ec:	82 83       	std	Z+2, r24	; 0x02
     4ee:	30 95       	com	r19
     4f0:	20 95       	com	r18
     4f2:	10 95       	com	r17
     4f4:	01 95       	neg	r16
     4f6:	1f 4f       	sbci	r17, 0xFF	; 255
     4f8:	2f 4f       	sbci	r18, 0xFF	; 255
     4fa:	3f 4f       	sbci	r19, 0xFF	; 255
     4fc:	04 83       	std	Z+4, r16	; 0x04
     4fe:	15 83       	std	Z+5, r17	; 0x05
     500:	26 83       	std	Z+6, r18	; 0x06
     502:	37 83       	std	Z+7, r19	; 0x07
     504:	0e c0       	rjmp	.+28     	; 0x522 <_fpadd_parts+0x22c>
     506:	88 0f       	add	r24, r24
     508:	99 1f       	adc	r25, r25
     50a:	aa 1f       	adc	r26, r26
     50c:	bb 1f       	adc	r27, r27
     50e:	f6 01       	movw	r30, r12
     510:	84 83       	std	Z+4, r24	; 0x04
     512:	95 83       	std	Z+5, r25	; 0x05
     514:	a6 83       	std	Z+6, r26	; 0x06
     516:	b7 83       	std	Z+7, r27	; 0x07
     518:	82 81       	ldd	r24, Z+2	; 0x02
     51a:	93 81       	ldd	r25, Z+3	; 0x03
     51c:	01 97       	sbiw	r24, 0x01	; 1
     51e:	93 83       	std	Z+3, r25	; 0x03
     520:	82 83       	std	Z+2, r24	; 0x02
     522:	f6 01       	movw	r30, r12
     524:	84 81       	ldd	r24, Z+4	; 0x04
     526:	95 81       	ldd	r25, Z+5	; 0x05
     528:	a6 81       	ldd	r26, Z+6	; 0x06
     52a:	b7 81       	ldd	r27, Z+7	; 0x07
     52c:	ac 01       	movw	r20, r24
     52e:	bd 01       	movw	r22, r26
     530:	41 50       	subi	r20, 0x01	; 1
     532:	51 09       	sbc	r21, r1
     534:	61 09       	sbc	r22, r1
     536:	71 09       	sbc	r23, r1
     538:	4f 3f       	cpi	r20, 0xFF	; 255
     53a:	5f 4f       	sbci	r21, 0xFF	; 255
     53c:	6f 4f       	sbci	r22, 0xFF	; 255
     53e:	7f 43       	sbci	r23, 0x3F	; 63
     540:	10 f3       	brcs	.-60     	; 0x506 <_fpadd_parts+0x210>
     542:	0c c0       	rjmp	.+24     	; 0x55c <_fpadd_parts+0x266>
     544:	f6 01       	movw	r30, r12
     546:	41 83       	std	Z+1, r20	; 0x01
     548:	93 83       	std	Z+3, r25	; 0x03
     54a:	82 83       	std	Z+2, r24	; 0x02
     54c:	08 0d       	add	r16, r8
     54e:	19 1d       	adc	r17, r9
     550:	2a 1d       	adc	r18, r10
     552:	3b 1d       	adc	r19, r11
     554:	04 83       	std	Z+4, r16	; 0x04
     556:	15 83       	std	Z+5, r17	; 0x05
     558:	26 83       	std	Z+6, r18	; 0x06
     55a:	37 83       	std	Z+7, r19	; 0x07
     55c:	83 e0       	ldi	r24, 0x03	; 3
     55e:	f6 01       	movw	r30, r12
     560:	80 83       	st	Z, r24
     562:	44 81       	ldd	r20, Z+4	; 0x04
     564:	55 81       	ldd	r21, Z+5	; 0x05
     566:	66 81       	ldd	r22, Z+6	; 0x06
     568:	77 81       	ldd	r23, Z+7	; 0x07
     56a:	77 ff       	sbrs	r23, 7
     56c:	1a c0       	rjmp	.+52     	; 0x5a2 <_fpadd_parts+0x2ac>
     56e:	db 01       	movw	r26, r22
     570:	ca 01       	movw	r24, r20
     572:	81 70       	andi	r24, 0x01	; 1
     574:	99 27       	eor	r25, r25
     576:	aa 27       	eor	r26, r26
     578:	bb 27       	eor	r27, r27
     57a:	76 95       	lsr	r23
     57c:	67 95       	ror	r22
     57e:	57 95       	ror	r21
     580:	47 95       	ror	r20
     582:	84 2b       	or	r24, r20
     584:	95 2b       	or	r25, r21
     586:	a6 2b       	or	r26, r22
     588:	b7 2b       	or	r27, r23
     58a:	84 83       	std	Z+4, r24	; 0x04
     58c:	95 83       	std	Z+5, r25	; 0x05
     58e:	a6 83       	std	Z+6, r26	; 0x06
     590:	b7 83       	std	Z+7, r27	; 0x07
     592:	82 81       	ldd	r24, Z+2	; 0x02
     594:	93 81       	ldd	r25, Z+3	; 0x03
     596:	01 96       	adiw	r24, 0x01	; 1
     598:	93 83       	std	Z+3, r25	; 0x03
     59a:	82 83       	std	Z+2, r24	; 0x02
     59c:	02 c0       	rjmp	.+4      	; 0x5a2 <_fpadd_parts+0x2ac>
     59e:	7b 01       	movw	r14, r22
     5a0:	01 c0       	rjmp	.+2      	; 0x5a4 <_fpadd_parts+0x2ae>
     5a2:	76 01       	movw	r14, r12
     5a4:	c7 01       	movw	r24, r14
     5a6:	24 96       	adiw	r28, 0x04	; 4
     5a8:	e0 e1       	ldi	r30, 0x10	; 16
     5aa:	0c 94 2f 10 	jmp	0x205e	; 0x205e <__epilogue_restores__+0x4>

000005ae <__addsf3>:
     5ae:	a0 e2       	ldi	r26, 0x20	; 32
     5b0:	b0 e0       	ldi	r27, 0x00	; 0
     5b2:	ed ed       	ldi	r30, 0xDD	; 221
     5b4:	f2 e0       	ldi	r31, 0x02	; 2
     5b6:	0c 94 21 10 	jmp	0x2042	; 0x2042 <__prologue_saves__+0x20>
     5ba:	6d 8f       	std	Y+29, r22	; 0x1d
     5bc:	7e 8f       	std	Y+30, r23	; 0x1e
     5be:	8f 8f       	std	Y+31, r24	; 0x1f
     5c0:	98 a3       	std	Y+32, r25	; 0x20
     5c2:	29 8f       	std	Y+25, r18	; 0x19
     5c4:	3a 8f       	std	Y+26, r19	; 0x1a
     5c6:	4b 8f       	std	Y+27, r20	; 0x1b
     5c8:	5c 8f       	std	Y+28, r21	; 0x1c
     5ca:	be 01       	movw	r22, r28
     5cc:	6f 5e       	subi	r22, 0xEF	; 239
     5ce:	7f 4f       	sbci	r23, 0xFF	; 255
     5d0:	ce 01       	movw	r24, r28
     5d2:	4d 96       	adiw	r24, 0x1d	; 29
     5d4:	7b d3       	rcall	.+1782   	; 0xccc <__unpack_f>
     5d6:	be 01       	movw	r22, r28
     5d8:	67 5f       	subi	r22, 0xF7	; 247
     5da:	7f 4f       	sbci	r23, 0xFF	; 255
     5dc:	ce 01       	movw	r24, r28
     5de:	49 96       	adiw	r24, 0x19	; 25
     5e0:	75 d3       	rcall	.+1770   	; 0xccc <__unpack_f>
     5e2:	ae 01       	movw	r20, r28
     5e4:	4f 5f       	subi	r20, 0xFF	; 255
     5e6:	5f 4f       	sbci	r21, 0xFF	; 255
     5e8:	be 01       	movw	r22, r28
     5ea:	67 5f       	subi	r22, 0xF7	; 247
     5ec:	7f 4f       	sbci	r23, 0xFF	; 255
     5ee:	ce 01       	movw	r24, r28
     5f0:	41 96       	adiw	r24, 0x11	; 17
     5f2:	81 de       	rcall	.-766    	; 0x2f6 <_fpadd_parts>
     5f4:	a1 d2       	rcall	.+1346   	; 0xb38 <__pack_f>
     5f6:	a0 96       	adiw	r28, 0x20	; 32
     5f8:	e2 e0       	ldi	r30, 0x02	; 2
     5fa:	0c 94 3d 10 	jmp	0x207a	; 0x207a <__epilogue_restores__+0x20>

000005fe <__subsf3>:
     5fe:	a0 e2       	ldi	r26, 0x20	; 32
     600:	b0 e0       	ldi	r27, 0x00	; 0
     602:	e5 e0       	ldi	r30, 0x05	; 5
     604:	f3 e0       	ldi	r31, 0x03	; 3
     606:	0c 94 21 10 	jmp	0x2042	; 0x2042 <__prologue_saves__+0x20>
     60a:	6d 8f       	std	Y+29, r22	; 0x1d
     60c:	7e 8f       	std	Y+30, r23	; 0x1e
     60e:	8f 8f       	std	Y+31, r24	; 0x1f
     610:	98 a3       	std	Y+32, r25	; 0x20
     612:	29 8f       	std	Y+25, r18	; 0x19
     614:	3a 8f       	std	Y+26, r19	; 0x1a
     616:	4b 8f       	std	Y+27, r20	; 0x1b
     618:	5c 8f       	std	Y+28, r21	; 0x1c
     61a:	be 01       	movw	r22, r28
     61c:	6f 5e       	subi	r22, 0xEF	; 239
     61e:	7f 4f       	sbci	r23, 0xFF	; 255
     620:	ce 01       	movw	r24, r28
     622:	4d 96       	adiw	r24, 0x1d	; 29
     624:	53 d3       	rcall	.+1702   	; 0xccc <__unpack_f>
     626:	be 01       	movw	r22, r28
     628:	67 5f       	subi	r22, 0xF7	; 247
     62a:	7f 4f       	sbci	r23, 0xFF	; 255
     62c:	ce 01       	movw	r24, r28
     62e:	49 96       	adiw	r24, 0x19	; 25
     630:	4d d3       	rcall	.+1690   	; 0xccc <__unpack_f>
     632:	8a 85       	ldd	r24, Y+10	; 0x0a
     634:	91 e0       	ldi	r25, 0x01	; 1
     636:	89 27       	eor	r24, r25
     638:	8a 87       	std	Y+10, r24	; 0x0a
     63a:	ae 01       	movw	r20, r28
     63c:	4f 5f       	subi	r20, 0xFF	; 255
     63e:	5f 4f       	sbci	r21, 0xFF	; 255
     640:	be 01       	movw	r22, r28
     642:	67 5f       	subi	r22, 0xF7	; 247
     644:	7f 4f       	sbci	r23, 0xFF	; 255
     646:	ce 01       	movw	r24, r28
     648:	41 96       	adiw	r24, 0x11	; 17
     64a:	55 de       	rcall	.-854    	; 0x2f6 <_fpadd_parts>
     64c:	75 d2       	rcall	.+1258   	; 0xb38 <__pack_f>
     64e:	a0 96       	adiw	r28, 0x20	; 32
     650:	e2 e0       	ldi	r30, 0x02	; 2
     652:	0c 94 3d 10 	jmp	0x207a	; 0x207a <__epilogue_restores__+0x20>

00000656 <__mulsf3>:
     656:	a0 e2       	ldi	r26, 0x20	; 32
     658:	b0 e0       	ldi	r27, 0x00	; 0
     65a:	e1 e3       	ldi	r30, 0x31	; 49
     65c:	f3 e0       	ldi	r31, 0x03	; 3
     65e:	0c 94 13 10 	jmp	0x2026	; 0x2026 <__prologue_saves__+0x4>
     662:	6d 8f       	std	Y+29, r22	; 0x1d
     664:	7e 8f       	std	Y+30, r23	; 0x1e
     666:	8f 8f       	std	Y+31, r24	; 0x1f
     668:	98 a3       	std	Y+32, r25	; 0x20
     66a:	29 8f       	std	Y+25, r18	; 0x19
     66c:	3a 8f       	std	Y+26, r19	; 0x1a
     66e:	4b 8f       	std	Y+27, r20	; 0x1b
     670:	5c 8f       	std	Y+28, r21	; 0x1c
     672:	be 01       	movw	r22, r28
     674:	6f 5e       	subi	r22, 0xEF	; 239
     676:	7f 4f       	sbci	r23, 0xFF	; 255
     678:	ce 01       	movw	r24, r28
     67a:	4d 96       	adiw	r24, 0x1d	; 29
     67c:	27 d3       	rcall	.+1614   	; 0xccc <__unpack_f>
     67e:	be 01       	movw	r22, r28
     680:	67 5f       	subi	r22, 0xF7	; 247
     682:	7f 4f       	sbci	r23, 0xFF	; 255
     684:	ce 01       	movw	r24, r28
     686:	49 96       	adiw	r24, 0x19	; 25
     688:	21 d3       	rcall	.+1602   	; 0xccc <__unpack_f>
     68a:	99 89       	ldd	r25, Y+17	; 0x11
     68c:	92 30       	cpi	r25, 0x02	; 2
     68e:	08 f4       	brcc	.+2      	; 0x692 <__mulsf3+0x3c>
     690:	12 c0       	rjmp	.+36     	; 0x6b6 <__mulsf3+0x60>
     692:	89 85       	ldd	r24, Y+9	; 0x09
     694:	82 30       	cpi	r24, 0x02	; 2
     696:	08 f4       	brcc	.+2      	; 0x69a <__mulsf3+0x44>
     698:	1a c0       	rjmp	.+52     	; 0x6ce <__mulsf3+0x78>
     69a:	94 30       	cpi	r25, 0x04	; 4
     69c:	21 f4       	brne	.+8      	; 0x6a6 <__mulsf3+0x50>
     69e:	82 30       	cpi	r24, 0x02	; 2
     6a0:	09 f4       	brne	.+2      	; 0x6a4 <__mulsf3+0x4e>
     6a2:	b4 c0       	rjmp	.+360    	; 0x80c <__mulsf3+0x1b6>
     6a4:	08 c0       	rjmp	.+16     	; 0x6b6 <__mulsf3+0x60>
     6a6:	84 30       	cpi	r24, 0x04	; 4
     6a8:	21 f4       	brne	.+8      	; 0x6b2 <__mulsf3+0x5c>
     6aa:	92 30       	cpi	r25, 0x02	; 2
     6ac:	09 f4       	brne	.+2      	; 0x6b0 <__mulsf3+0x5a>
     6ae:	ae c0       	rjmp	.+348    	; 0x80c <__mulsf3+0x1b6>
     6b0:	0e c0       	rjmp	.+28     	; 0x6ce <__mulsf3+0x78>
     6b2:	92 30       	cpi	r25, 0x02	; 2
     6b4:	51 f4       	brne	.+20     	; 0x6ca <__mulsf3+0x74>
     6b6:	81 e0       	ldi	r24, 0x01	; 1
     6b8:	2a 89       	ldd	r18, Y+18	; 0x12
     6ba:	9a 85       	ldd	r25, Y+10	; 0x0a
     6bc:	29 13       	cpse	r18, r25
     6be:	01 c0       	rjmp	.+2      	; 0x6c2 <__mulsf3+0x6c>
     6c0:	80 e0       	ldi	r24, 0x00	; 0
     6c2:	8a 8b       	std	Y+18, r24	; 0x12
     6c4:	ce 01       	movw	r24, r28
     6c6:	41 96       	adiw	r24, 0x11	; 17
     6c8:	a3 c0       	rjmp	.+326    	; 0x810 <__mulsf3+0x1ba>
     6ca:	82 30       	cpi	r24, 0x02	; 2
     6cc:	51 f4       	brne	.+20     	; 0x6e2 <__mulsf3+0x8c>
     6ce:	81 e0       	ldi	r24, 0x01	; 1
     6d0:	2a 89       	ldd	r18, Y+18	; 0x12
     6d2:	9a 85       	ldd	r25, Y+10	; 0x0a
     6d4:	29 13       	cpse	r18, r25
     6d6:	01 c0       	rjmp	.+2      	; 0x6da <__mulsf3+0x84>
     6d8:	80 e0       	ldi	r24, 0x00	; 0
     6da:	8a 87       	std	Y+10, r24	; 0x0a
     6dc:	ce 01       	movw	r24, r28
     6de:	09 96       	adiw	r24, 0x09	; 9
     6e0:	97 c0       	rjmp	.+302    	; 0x810 <__mulsf3+0x1ba>
     6e2:	8d 88       	ldd	r8, Y+21	; 0x15
     6e4:	9e 88       	ldd	r9, Y+22	; 0x16
     6e6:	af 88       	ldd	r10, Y+23	; 0x17
     6e8:	b8 8c       	ldd	r11, Y+24	; 0x18
     6ea:	0d 85       	ldd	r16, Y+13	; 0x0d
     6ec:	1e 85       	ldd	r17, Y+14	; 0x0e
     6ee:	2f 85       	ldd	r18, Y+15	; 0x0f
     6f0:	38 89       	ldd	r19, Y+16	; 0x10
     6f2:	e0 e2       	ldi	r30, 0x20	; 32
     6f4:	f0 e0       	ldi	r31, 0x00	; 0
     6f6:	80 e0       	ldi	r24, 0x00	; 0
     6f8:	90 e0       	ldi	r25, 0x00	; 0
     6fa:	dc 01       	movw	r26, r24
     6fc:	c1 2c       	mov	r12, r1
     6fe:	d1 2c       	mov	r13, r1
     700:	76 01       	movw	r14, r12
     702:	40 e0       	ldi	r20, 0x00	; 0
     704:	50 e0       	ldi	r21, 0x00	; 0
     706:	ba 01       	movw	r22, r20
     708:	80 fe       	sbrs	r8, 0
     70a:	18 c0       	rjmp	.+48     	; 0x73c <__mulsf3+0xe6>
     70c:	40 0f       	add	r20, r16
     70e:	51 1f       	adc	r21, r17
     710:	62 1f       	adc	r22, r18
     712:	73 1f       	adc	r23, r19
     714:	8c 0d       	add	r24, r12
     716:	9d 1d       	adc	r25, r13
     718:	ae 1d       	adc	r26, r14
     71a:	bf 1d       	adc	r27, r15
     71c:	41 2c       	mov	r4, r1
     71e:	51 2c       	mov	r5, r1
     720:	32 01       	movw	r6, r4
     722:	43 94       	inc	r4
     724:	40 17       	cp	r20, r16
     726:	51 07       	cpc	r21, r17
     728:	62 07       	cpc	r22, r18
     72a:	73 07       	cpc	r23, r19
     72c:	18 f0       	brcs	.+6      	; 0x734 <__mulsf3+0xde>
     72e:	41 2c       	mov	r4, r1
     730:	51 2c       	mov	r5, r1
     732:	32 01       	movw	r6, r4
     734:	84 0d       	add	r24, r4
     736:	95 1d       	adc	r25, r5
     738:	a6 1d       	adc	r26, r6
     73a:	b7 1d       	adc	r27, r7
     73c:	cc 0c       	add	r12, r12
     73e:	dd 1c       	adc	r13, r13
     740:	ee 1c       	adc	r14, r14
     742:	ff 1c       	adc	r15, r15
     744:	37 ff       	sbrs	r19, 7
     746:	02 c0       	rjmp	.+4      	; 0x74c <__mulsf3+0xf6>
     748:	68 94       	set
     74a:	c0 f8       	bld	r12, 0
     74c:	00 0f       	add	r16, r16
     74e:	11 1f       	adc	r17, r17
     750:	22 1f       	adc	r18, r18
     752:	33 1f       	adc	r19, r19
     754:	b6 94       	lsr	r11
     756:	a7 94       	ror	r10
     758:	97 94       	ror	r9
     75a:	87 94       	ror	r8
     75c:	31 97       	sbiw	r30, 0x01	; 1
     75e:	a1 f6       	brne	.-88     	; 0x708 <__mulsf3+0xb2>
     760:	2b 89       	ldd	r18, Y+19	; 0x13
     762:	3c 89       	ldd	r19, Y+20	; 0x14
     764:	eb 85       	ldd	r30, Y+11	; 0x0b
     766:	fc 85       	ldd	r31, Y+12	; 0x0c
     768:	2e 0f       	add	r18, r30
     76a:	3f 1f       	adc	r19, r31
     76c:	2e 5f       	subi	r18, 0xFE	; 254
     76e:	3f 4f       	sbci	r19, 0xFF	; 255
     770:	3c 83       	std	Y+4, r19	; 0x04
     772:	2b 83       	std	Y+3, r18	; 0x03
     774:	21 e0       	ldi	r18, 0x01	; 1
     776:	ea 89       	ldd	r30, Y+18	; 0x12
     778:	3a 85       	ldd	r19, Y+10	; 0x0a
     77a:	e3 13       	cpse	r30, r19
     77c:	01 c0       	rjmp	.+2      	; 0x780 <__mulsf3+0x12a>
     77e:	20 e0       	ldi	r18, 0x00	; 0
     780:	2a 83       	std	Y+2, r18	; 0x02
     782:	eb 81       	ldd	r30, Y+3	; 0x03
     784:	fc 81       	ldd	r31, Y+4	; 0x04
     786:	0c c0       	rjmp	.+24     	; 0x7a0 <__mulsf3+0x14a>
     788:	80 ff       	sbrs	r24, 0
     78a:	05 c0       	rjmp	.+10     	; 0x796 <__mulsf3+0x140>
     78c:	76 95       	lsr	r23
     78e:	67 95       	ror	r22
     790:	57 95       	ror	r21
     792:	47 95       	ror	r20
     794:	70 68       	ori	r23, 0x80	; 128
     796:	b6 95       	lsr	r27
     798:	a7 95       	ror	r26
     79a:	97 95       	ror	r25
     79c:	87 95       	ror	r24
     79e:	31 96       	adiw	r30, 0x01	; 1
     7a0:	b7 fd       	sbrc	r27, 7
     7a2:	f2 cf       	rjmp	.-28     	; 0x788 <__mulsf3+0x132>
     7a4:	9f 01       	movw	r18, r30
     7a6:	0c c0       	rjmp	.+24     	; 0x7c0 <__mulsf3+0x16a>
     7a8:	88 0f       	add	r24, r24
     7aa:	99 1f       	adc	r25, r25
     7ac:	aa 1f       	adc	r26, r26
     7ae:	bb 1f       	adc	r27, r27
     7b0:	77 fd       	sbrc	r23, 7
     7b2:	81 60       	ori	r24, 0x01	; 1
     7b4:	44 0f       	add	r20, r20
     7b6:	55 1f       	adc	r21, r21
     7b8:	66 1f       	adc	r22, r22
     7ba:	77 1f       	adc	r23, r23
     7bc:	21 50       	subi	r18, 0x01	; 1
     7be:	31 09       	sbc	r19, r1
     7c0:	00 97       	sbiw	r24, 0x00	; 0
     7c2:	a1 05       	cpc	r26, r1
     7c4:	e0 e4       	ldi	r30, 0x40	; 64
     7c6:	be 07       	cpc	r27, r30
     7c8:	78 f3       	brcs	.-34     	; 0x7a8 <__mulsf3+0x152>
     7ca:	2b 83       	std	Y+3, r18	; 0x03
     7cc:	3c 83       	std	Y+4, r19	; 0x04
     7ce:	8c 01       	movw	r16, r24
     7d0:	9d 01       	movw	r18, r26
     7d2:	0f 77       	andi	r16, 0x7F	; 127
     7d4:	11 27       	eor	r17, r17
     7d6:	22 27       	eor	r18, r18
     7d8:	33 27       	eor	r19, r19
     7da:	00 34       	cpi	r16, 0x40	; 64
     7dc:	11 05       	cpc	r17, r1
     7de:	21 05       	cpc	r18, r1
     7e0:	31 05       	cpc	r19, r1
     7e2:	59 f4       	brne	.+22     	; 0x7fa <__mulsf3+0x1a4>
     7e4:	87 fd       	sbrc	r24, 7
     7e6:	09 c0       	rjmp	.+18     	; 0x7fa <__mulsf3+0x1a4>
     7e8:	45 2b       	or	r20, r21
     7ea:	46 2b       	or	r20, r22
     7ec:	47 2b       	or	r20, r23
     7ee:	29 f0       	breq	.+10     	; 0x7fa <__mulsf3+0x1a4>
     7f0:	80 5c       	subi	r24, 0xC0	; 192
     7f2:	9f 4f       	sbci	r25, 0xFF	; 255
     7f4:	af 4f       	sbci	r26, 0xFF	; 255
     7f6:	bf 4f       	sbci	r27, 0xFF	; 255
     7f8:	80 78       	andi	r24, 0x80	; 128
     7fa:	8d 83       	std	Y+5, r24	; 0x05
     7fc:	9e 83       	std	Y+6, r25	; 0x06
     7fe:	af 83       	std	Y+7, r26	; 0x07
     800:	b8 87       	std	Y+8, r27	; 0x08
     802:	83 e0       	ldi	r24, 0x03	; 3
     804:	89 83       	std	Y+1, r24	; 0x01
     806:	ce 01       	movw	r24, r28
     808:	01 96       	adiw	r24, 0x01	; 1
     80a:	02 c0       	rjmp	.+4      	; 0x810 <__mulsf3+0x1ba>
     80c:	80 e0       	ldi	r24, 0x00	; 0
     80e:	91 e0       	ldi	r25, 0x01	; 1
     810:	93 d1       	rcall	.+806    	; 0xb38 <__pack_f>
     812:	a0 96       	adiw	r28, 0x20	; 32
     814:	e0 e1       	ldi	r30, 0x10	; 16
     816:	0c 94 2f 10 	jmp	0x205e	; 0x205e <__epilogue_restores__+0x4>

0000081a <__divsf3>:
     81a:	a8 e1       	ldi	r26, 0x18	; 24
     81c:	b0 e0       	ldi	r27, 0x00	; 0
     81e:	e3 e1       	ldi	r30, 0x13	; 19
     820:	f4 e0       	ldi	r31, 0x04	; 4
     822:	0c 94 1b 10 	jmp	0x2036	; 0x2036 <__prologue_saves__+0x14>
     826:	6d 8b       	std	Y+21, r22	; 0x15
     828:	7e 8b       	std	Y+22, r23	; 0x16
     82a:	8f 8b       	std	Y+23, r24	; 0x17
     82c:	98 8f       	std	Y+24, r25	; 0x18
     82e:	29 8b       	std	Y+17, r18	; 0x11
     830:	3a 8b       	std	Y+18, r19	; 0x12
     832:	4b 8b       	std	Y+19, r20	; 0x13
     834:	5c 8b       	std	Y+20, r21	; 0x14
     836:	be 01       	movw	r22, r28
     838:	67 5f       	subi	r22, 0xF7	; 247
     83a:	7f 4f       	sbci	r23, 0xFF	; 255
     83c:	ce 01       	movw	r24, r28
     83e:	45 96       	adiw	r24, 0x15	; 21
     840:	45 d2       	rcall	.+1162   	; 0xccc <__unpack_f>
     842:	be 01       	movw	r22, r28
     844:	6f 5f       	subi	r22, 0xFF	; 255
     846:	7f 4f       	sbci	r23, 0xFF	; 255
     848:	ce 01       	movw	r24, r28
     84a:	41 96       	adiw	r24, 0x11	; 17
     84c:	3f d2       	rcall	.+1150   	; 0xccc <__unpack_f>
     84e:	99 85       	ldd	r25, Y+9	; 0x09
     850:	92 30       	cpi	r25, 0x02	; 2
     852:	08 f4       	brcc	.+2      	; 0x856 <__divsf3+0x3c>
     854:	75 c0       	rjmp	.+234    	; 0x940 <__divsf3+0x126>
     856:	89 81       	ldd	r24, Y+1	; 0x01
     858:	82 30       	cpi	r24, 0x02	; 2
     85a:	08 f4       	brcc	.+2      	; 0x85e <__divsf3+0x44>
     85c:	74 c0       	rjmp	.+232    	; 0x946 <__divsf3+0x12c>
     85e:	2a 85       	ldd	r18, Y+10	; 0x0a
     860:	3a 81       	ldd	r19, Y+2	; 0x02
     862:	23 27       	eor	r18, r19
     864:	2a 87       	std	Y+10, r18	; 0x0a
     866:	94 30       	cpi	r25, 0x04	; 4
     868:	11 f0       	breq	.+4      	; 0x86e <__divsf3+0x54>
     86a:	92 30       	cpi	r25, 0x02	; 2
     86c:	19 f4       	brne	.+6      	; 0x874 <__divsf3+0x5a>
     86e:	98 13       	cpse	r25, r24
     870:	67 c0       	rjmp	.+206    	; 0x940 <__divsf3+0x126>
     872:	6c c0       	rjmp	.+216    	; 0x94c <__divsf3+0x132>
     874:	84 30       	cpi	r24, 0x04	; 4
     876:	39 f4       	brne	.+14     	; 0x886 <__divsf3+0x6c>
     878:	1d 86       	std	Y+13, r1	; 0x0d
     87a:	1e 86       	std	Y+14, r1	; 0x0e
     87c:	1f 86       	std	Y+15, r1	; 0x0f
     87e:	18 8a       	std	Y+16, r1	; 0x10
     880:	1c 86       	std	Y+12, r1	; 0x0c
     882:	1b 86       	std	Y+11, r1	; 0x0b
     884:	04 c0       	rjmp	.+8      	; 0x88e <__divsf3+0x74>
     886:	82 30       	cpi	r24, 0x02	; 2
     888:	29 f4       	brne	.+10     	; 0x894 <__divsf3+0x7a>
     88a:	84 e0       	ldi	r24, 0x04	; 4
     88c:	89 87       	std	Y+9, r24	; 0x09
     88e:	ce 01       	movw	r24, r28
     890:	09 96       	adiw	r24, 0x09	; 9
     892:	5e c0       	rjmp	.+188    	; 0x950 <__divsf3+0x136>
     894:	8b 85       	ldd	r24, Y+11	; 0x0b
     896:	9c 85       	ldd	r25, Y+12	; 0x0c
     898:	2b 81       	ldd	r18, Y+3	; 0x03
     89a:	3c 81       	ldd	r19, Y+4	; 0x04
     89c:	82 1b       	sub	r24, r18
     89e:	93 0b       	sbc	r25, r19
     8a0:	9c 87       	std	Y+12, r25	; 0x0c
     8a2:	8b 87       	std	Y+11, r24	; 0x0b
     8a4:	4d 85       	ldd	r20, Y+13	; 0x0d
     8a6:	5e 85       	ldd	r21, Y+14	; 0x0e
     8a8:	6f 85       	ldd	r22, Y+15	; 0x0f
     8aa:	78 89       	ldd	r23, Y+16	; 0x10
     8ac:	cd 80       	ldd	r12, Y+5	; 0x05
     8ae:	de 80       	ldd	r13, Y+6	; 0x06
     8b0:	ef 80       	ldd	r14, Y+7	; 0x07
     8b2:	f8 84       	ldd	r15, Y+8	; 0x08
     8b4:	4c 15       	cp	r20, r12
     8b6:	5d 05       	cpc	r21, r13
     8b8:	6e 05       	cpc	r22, r14
     8ba:	7f 05       	cpc	r23, r15
     8bc:	38 f4       	brcc	.+14     	; 0x8cc <__divsf3+0xb2>
     8be:	44 0f       	add	r20, r20
     8c0:	55 1f       	adc	r21, r21
     8c2:	66 1f       	adc	r22, r22
     8c4:	77 1f       	adc	r23, r23
     8c6:	01 97       	sbiw	r24, 0x01	; 1
     8c8:	9c 87       	std	Y+12, r25	; 0x0c
     8ca:	8b 87       	std	Y+11, r24	; 0x0b
     8cc:	ef e1       	ldi	r30, 0x1F	; 31
     8ce:	f0 e0       	ldi	r31, 0x00	; 0
     8d0:	00 e0       	ldi	r16, 0x00	; 0
     8d2:	10 e0       	ldi	r17, 0x00	; 0
     8d4:	20 e0       	ldi	r18, 0x00	; 0
     8d6:	30 e4       	ldi	r19, 0x40	; 64
     8d8:	80 e0       	ldi	r24, 0x00	; 0
     8da:	90 e0       	ldi	r25, 0x00	; 0
     8dc:	dc 01       	movw	r26, r24
     8de:	4c 15       	cp	r20, r12
     8e0:	5d 05       	cpc	r21, r13
     8e2:	6e 05       	cpc	r22, r14
     8e4:	7f 05       	cpc	r23, r15
     8e6:	40 f0       	brcs	.+16     	; 0x8f8 <__divsf3+0xde>
     8e8:	80 2b       	or	r24, r16
     8ea:	91 2b       	or	r25, r17
     8ec:	a2 2b       	or	r26, r18
     8ee:	b3 2b       	or	r27, r19
     8f0:	4c 19       	sub	r20, r12
     8f2:	5d 09       	sbc	r21, r13
     8f4:	6e 09       	sbc	r22, r14
     8f6:	7f 09       	sbc	r23, r15
     8f8:	36 95       	lsr	r19
     8fa:	27 95       	ror	r18
     8fc:	17 95       	ror	r17
     8fe:	07 95       	ror	r16
     900:	44 0f       	add	r20, r20
     902:	55 1f       	adc	r21, r21
     904:	66 1f       	adc	r22, r22
     906:	77 1f       	adc	r23, r23
     908:	31 97       	sbiw	r30, 0x01	; 1
     90a:	49 f7       	brne	.-46     	; 0x8de <__divsf3+0xc4>
     90c:	8c 01       	movw	r16, r24
     90e:	9d 01       	movw	r18, r26
     910:	0f 77       	andi	r16, 0x7F	; 127
     912:	11 27       	eor	r17, r17
     914:	22 27       	eor	r18, r18
     916:	33 27       	eor	r19, r19
     918:	00 34       	cpi	r16, 0x40	; 64
     91a:	11 05       	cpc	r17, r1
     91c:	21 05       	cpc	r18, r1
     91e:	31 05       	cpc	r19, r1
     920:	59 f4       	brne	.+22     	; 0x938 <__divsf3+0x11e>
     922:	87 fd       	sbrc	r24, 7
     924:	09 c0       	rjmp	.+18     	; 0x938 <__divsf3+0x11e>
     926:	45 2b       	or	r20, r21
     928:	46 2b       	or	r20, r22
     92a:	47 2b       	or	r20, r23
     92c:	29 f0       	breq	.+10     	; 0x938 <__divsf3+0x11e>
     92e:	80 5c       	subi	r24, 0xC0	; 192
     930:	9f 4f       	sbci	r25, 0xFF	; 255
     932:	af 4f       	sbci	r26, 0xFF	; 255
     934:	bf 4f       	sbci	r27, 0xFF	; 255
     936:	80 78       	andi	r24, 0x80	; 128
     938:	8d 87       	std	Y+13, r24	; 0x0d
     93a:	9e 87       	std	Y+14, r25	; 0x0e
     93c:	af 87       	std	Y+15, r26	; 0x0f
     93e:	b8 8b       	std	Y+16, r27	; 0x10
     940:	ce 01       	movw	r24, r28
     942:	09 96       	adiw	r24, 0x09	; 9
     944:	05 c0       	rjmp	.+10     	; 0x950 <__divsf3+0x136>
     946:	ce 01       	movw	r24, r28
     948:	01 96       	adiw	r24, 0x01	; 1
     94a:	02 c0       	rjmp	.+4      	; 0x950 <__divsf3+0x136>
     94c:	80 e0       	ldi	r24, 0x00	; 0
     94e:	91 e0       	ldi	r25, 0x01	; 1
     950:	f3 d0       	rcall	.+486    	; 0xb38 <__pack_f>
     952:	68 96       	adiw	r28, 0x18	; 24
     954:	e8 e0       	ldi	r30, 0x08	; 8
     956:	0c 94 37 10 	jmp	0x206e	; 0x206e <__epilogue_restores__+0x14>

0000095a <__gesf2>:
     95a:	a8 e1       	ldi	r26, 0x18	; 24
     95c:	b0 e0       	ldi	r27, 0x00	; 0
     95e:	e3 eb       	ldi	r30, 0xB3	; 179
     960:	f4 e0       	ldi	r31, 0x04	; 4
     962:	0c 94 21 10 	jmp	0x2042	; 0x2042 <__prologue_saves__+0x20>
     966:	6d 8b       	std	Y+21, r22	; 0x15
     968:	7e 8b       	std	Y+22, r23	; 0x16
     96a:	8f 8b       	std	Y+23, r24	; 0x17
     96c:	98 8f       	std	Y+24, r25	; 0x18
     96e:	29 8b       	std	Y+17, r18	; 0x11
     970:	3a 8b       	std	Y+18, r19	; 0x12
     972:	4b 8b       	std	Y+19, r20	; 0x13
     974:	5c 8b       	std	Y+20, r21	; 0x14
     976:	be 01       	movw	r22, r28
     978:	67 5f       	subi	r22, 0xF7	; 247
     97a:	7f 4f       	sbci	r23, 0xFF	; 255
     97c:	ce 01       	movw	r24, r28
     97e:	45 96       	adiw	r24, 0x15	; 21
     980:	a5 d1       	rcall	.+842    	; 0xccc <__unpack_f>
     982:	be 01       	movw	r22, r28
     984:	6f 5f       	subi	r22, 0xFF	; 255
     986:	7f 4f       	sbci	r23, 0xFF	; 255
     988:	ce 01       	movw	r24, r28
     98a:	41 96       	adiw	r24, 0x11	; 17
     98c:	9f d1       	rcall	.+830    	; 0xccc <__unpack_f>
     98e:	89 85       	ldd	r24, Y+9	; 0x09
     990:	82 30       	cpi	r24, 0x02	; 2
     992:	50 f0       	brcs	.+20     	; 0x9a8 <__gesf2+0x4e>
     994:	89 81       	ldd	r24, Y+1	; 0x01
     996:	82 30       	cpi	r24, 0x02	; 2
     998:	38 f0       	brcs	.+14     	; 0x9a8 <__gesf2+0x4e>
     99a:	be 01       	movw	r22, r28
     99c:	6f 5f       	subi	r22, 0xFF	; 255
     99e:	7f 4f       	sbci	r23, 0xFF	; 255
     9a0:	ce 01       	movw	r24, r28
     9a2:	09 96       	adiw	r24, 0x09	; 9
     9a4:	02 d2       	rcall	.+1028   	; 0xdaa <__fpcmp_parts_f>
     9a6:	01 c0       	rjmp	.+2      	; 0x9aa <__gesf2+0x50>
     9a8:	8f ef       	ldi	r24, 0xFF	; 255
     9aa:	68 96       	adiw	r28, 0x18	; 24
     9ac:	e2 e0       	ldi	r30, 0x02	; 2
     9ae:	0c 94 3d 10 	jmp	0x207a	; 0x207a <__epilogue_restores__+0x20>

000009b2 <__fixsfsi>:
     9b2:	ac e0       	ldi	r26, 0x0C	; 12
     9b4:	b0 e0       	ldi	r27, 0x00	; 0
     9b6:	ef ed       	ldi	r30, 0xDF	; 223
     9b8:	f4 e0       	ldi	r31, 0x04	; 4
     9ba:	0c 94 1f 10 	jmp	0x203e	; 0x203e <__prologue_saves__+0x1c>
     9be:	69 87       	std	Y+9, r22	; 0x09
     9c0:	7a 87       	std	Y+10, r23	; 0x0a
     9c2:	8b 87       	std	Y+11, r24	; 0x0b
     9c4:	9c 87       	std	Y+12, r25	; 0x0c
     9c6:	be 01       	movw	r22, r28
     9c8:	6f 5f       	subi	r22, 0xFF	; 255
     9ca:	7f 4f       	sbci	r23, 0xFF	; 255
     9cc:	ce 01       	movw	r24, r28
     9ce:	09 96       	adiw	r24, 0x09	; 9
     9d0:	7d d1       	rcall	.+762    	; 0xccc <__unpack_f>
     9d2:	89 81       	ldd	r24, Y+1	; 0x01
     9d4:	82 30       	cpi	r24, 0x02	; 2
     9d6:	91 f1       	breq	.+100    	; 0xa3c <__fixsfsi+0x8a>
     9d8:	82 30       	cpi	r24, 0x02	; 2
     9da:	80 f1       	brcs	.+96     	; 0xa3c <__fixsfsi+0x8a>
     9dc:	84 30       	cpi	r24, 0x04	; 4
     9de:	41 f4       	brne	.+16     	; 0x9f0 <__fixsfsi+0x3e>
     9e0:	8a 81       	ldd	r24, Y+2	; 0x02
     9e2:	88 23       	and	r24, r24
     9e4:	31 f1       	breq	.+76     	; 0xa32 <__fixsfsi+0x80>
     9e6:	00 e0       	ldi	r16, 0x00	; 0
     9e8:	10 e0       	ldi	r17, 0x00	; 0
     9ea:	20 e0       	ldi	r18, 0x00	; 0
     9ec:	30 e8       	ldi	r19, 0x80	; 128
     9ee:	29 c0       	rjmp	.+82     	; 0xa42 <__fixsfsi+0x90>
     9f0:	2b 81       	ldd	r18, Y+3	; 0x03
     9f2:	3c 81       	ldd	r19, Y+4	; 0x04
     9f4:	37 fd       	sbrc	r19, 7
     9f6:	22 c0       	rjmp	.+68     	; 0xa3c <__fixsfsi+0x8a>
     9f8:	2f 31       	cpi	r18, 0x1F	; 31
     9fa:	31 05       	cpc	r19, r1
     9fc:	8c f7       	brge	.-30     	; 0x9e0 <__fixsfsi+0x2e>
     9fe:	8e e1       	ldi	r24, 0x1E	; 30
     a00:	90 e0       	ldi	r25, 0x00	; 0
     a02:	82 1b       	sub	r24, r18
     a04:	93 0b       	sbc	r25, r19
     a06:	0d 81       	ldd	r16, Y+5	; 0x05
     a08:	1e 81       	ldd	r17, Y+6	; 0x06
     a0a:	2f 81       	ldd	r18, Y+7	; 0x07
     a0c:	38 85       	ldd	r19, Y+8	; 0x08
     a0e:	04 c0       	rjmp	.+8      	; 0xa18 <__fixsfsi+0x66>
     a10:	36 95       	lsr	r19
     a12:	27 95       	ror	r18
     a14:	17 95       	ror	r17
     a16:	07 95       	ror	r16
     a18:	8a 95       	dec	r24
     a1a:	d2 f7       	brpl	.-12     	; 0xa10 <__fixsfsi+0x5e>
     a1c:	8a 81       	ldd	r24, Y+2	; 0x02
     a1e:	88 23       	and	r24, r24
     a20:	81 f0       	breq	.+32     	; 0xa42 <__fixsfsi+0x90>
     a22:	30 95       	com	r19
     a24:	20 95       	com	r18
     a26:	10 95       	com	r17
     a28:	01 95       	neg	r16
     a2a:	1f 4f       	sbci	r17, 0xFF	; 255
     a2c:	2f 4f       	sbci	r18, 0xFF	; 255
     a2e:	3f 4f       	sbci	r19, 0xFF	; 255
     a30:	08 c0       	rjmp	.+16     	; 0xa42 <__fixsfsi+0x90>
     a32:	0f ef       	ldi	r16, 0xFF	; 255
     a34:	1f ef       	ldi	r17, 0xFF	; 255
     a36:	2f ef       	ldi	r18, 0xFF	; 255
     a38:	3f e7       	ldi	r19, 0x7F	; 127
     a3a:	03 c0       	rjmp	.+6      	; 0xa42 <__fixsfsi+0x90>
     a3c:	00 e0       	ldi	r16, 0x00	; 0
     a3e:	10 e0       	ldi	r17, 0x00	; 0
     a40:	98 01       	movw	r18, r16
     a42:	b8 01       	movw	r22, r16
     a44:	c9 01       	movw	r24, r18
     a46:	2c 96       	adiw	r28, 0x0c	; 12
     a48:	e4 e0       	ldi	r30, 0x04	; 4
     a4a:	0c 94 3b 10 	jmp	0x2076	; 0x2076 <__epilogue_restores__+0x1c>

00000a4e <__floatunsisf>:
     a4e:	a8 e0       	ldi	r26, 0x08	; 8
     a50:	b0 e0       	ldi	r27, 0x00	; 0
     a52:	ed e2       	ldi	r30, 0x2D	; 45
     a54:	f5 e0       	ldi	r31, 0x05	; 5
     a56:	0c 94 1b 10 	jmp	0x2036	; 0x2036 <__prologue_saves__+0x14>
     a5a:	8b 01       	movw	r16, r22
     a5c:	9c 01       	movw	r18, r24
     a5e:	1a 82       	std	Y+2, r1	; 0x02
     a60:	61 15       	cp	r22, r1
     a62:	71 05       	cpc	r23, r1
     a64:	81 05       	cpc	r24, r1
     a66:	91 05       	cpc	r25, r1
     a68:	19 f4       	brne	.+6      	; 0xa70 <__floatunsisf+0x22>
     a6a:	82 e0       	ldi	r24, 0x02	; 2
     a6c:	89 83       	std	Y+1, r24	; 0x01
     a6e:	5d c0       	rjmp	.+186    	; 0xb2a <__floatunsisf+0xdc>
     a70:	83 e0       	ldi	r24, 0x03	; 3
     a72:	89 83       	std	Y+1, r24	; 0x01
     a74:	4e e1       	ldi	r20, 0x1E	; 30
     a76:	50 e0       	ldi	r21, 0x00	; 0
     a78:	5c 83       	std	Y+4, r21	; 0x04
     a7a:	4b 83       	std	Y+3, r20	; 0x03
     a7c:	c9 01       	movw	r24, r18
     a7e:	b8 01       	movw	r22, r16
     a80:	0e 94 f8 0f 	call	0x1ff0	; 0x1ff0 <__clzsi2>
     a84:	01 97       	sbiw	r24, 0x01	; 1
     a86:	97 ff       	sbrs	r25, 7
     a88:	39 c0       	rjmp	.+114    	; 0xafc <__floatunsisf+0xae>
     a8a:	ee 27       	eor	r30, r30
     a8c:	ff 27       	eor	r31, r31
     a8e:	e8 1b       	sub	r30, r24
     a90:	f9 0b       	sbc	r31, r25
     a92:	41 e0       	ldi	r20, 0x01	; 1
     a94:	50 e0       	ldi	r21, 0x00	; 0
     a96:	60 e0       	ldi	r22, 0x00	; 0
     a98:	70 e0       	ldi	r23, 0x00	; 0
     a9a:	0e 2e       	mov	r0, r30
     a9c:	04 c0       	rjmp	.+8      	; 0xaa6 <__floatunsisf+0x58>
     a9e:	44 0f       	add	r20, r20
     aa0:	55 1f       	adc	r21, r21
     aa2:	66 1f       	adc	r22, r22
     aa4:	77 1f       	adc	r23, r23
     aa6:	0a 94       	dec	r0
     aa8:	d2 f7       	brpl	.-12     	; 0xa9e <__floatunsisf+0x50>
     aaa:	41 50       	subi	r20, 0x01	; 1
     aac:	51 09       	sbc	r21, r1
     aae:	61 09       	sbc	r22, r1
     ab0:	71 09       	sbc	r23, r1
     ab2:	40 23       	and	r20, r16
     ab4:	51 23       	and	r21, r17
     ab6:	62 23       	and	r22, r18
     ab8:	73 23       	and	r23, r19
     aba:	c1 2c       	mov	r12, r1
     abc:	d1 2c       	mov	r13, r1
     abe:	76 01       	movw	r14, r12
     ac0:	c3 94       	inc	r12
     ac2:	45 2b       	or	r20, r21
     ac4:	46 2b       	or	r20, r22
     ac6:	47 2b       	or	r20, r23
     ac8:	19 f4       	brne	.+6      	; 0xad0 <__floatunsisf+0x82>
     aca:	c1 2c       	mov	r12, r1
     acc:	d1 2c       	mov	r13, r1
     ace:	76 01       	movw	r14, r12
     ad0:	04 c0       	rjmp	.+8      	; 0xada <__floatunsisf+0x8c>
     ad2:	36 95       	lsr	r19
     ad4:	27 95       	ror	r18
     ad6:	17 95       	ror	r17
     ad8:	07 95       	ror	r16
     ada:	ea 95       	dec	r30
     adc:	d2 f7       	brpl	.-12     	; 0xad2 <__floatunsisf+0x84>
     ade:	0c 29       	or	r16, r12
     ae0:	1d 29       	or	r17, r13
     ae2:	2e 29       	or	r18, r14
     ae4:	3f 29       	or	r19, r15
     ae6:	0d 83       	std	Y+5, r16	; 0x05
     ae8:	1e 83       	std	Y+6, r17	; 0x06
     aea:	2f 83       	std	Y+7, r18	; 0x07
     aec:	38 87       	std	Y+8, r19	; 0x08
     aee:	2e e1       	ldi	r18, 0x1E	; 30
     af0:	30 e0       	ldi	r19, 0x00	; 0
     af2:	28 1b       	sub	r18, r24
     af4:	39 0b       	sbc	r19, r25
     af6:	3c 83       	std	Y+4, r19	; 0x04
     af8:	2b 83       	std	Y+3, r18	; 0x03
     afa:	17 c0       	rjmp	.+46     	; 0xb2a <__floatunsisf+0xdc>
     afc:	00 97       	sbiw	r24, 0x00	; 0
     afe:	29 f4       	brne	.+10     	; 0xb0a <__floatunsisf+0xbc>
     b00:	0d 83       	std	Y+5, r16	; 0x05
     b02:	1e 83       	std	Y+6, r17	; 0x06
     b04:	2f 83       	std	Y+7, r18	; 0x07
     b06:	38 87       	std	Y+8, r19	; 0x08
     b08:	10 c0       	rjmp	.+32     	; 0xb2a <__floatunsisf+0xdc>
     b0a:	08 2e       	mov	r0, r24
     b0c:	04 c0       	rjmp	.+8      	; 0xb16 <__floatunsisf+0xc8>
     b0e:	00 0f       	add	r16, r16
     b10:	11 1f       	adc	r17, r17
     b12:	22 1f       	adc	r18, r18
     b14:	33 1f       	adc	r19, r19
     b16:	0a 94       	dec	r0
     b18:	d2 f7       	brpl	.-12     	; 0xb0e <__floatunsisf+0xc0>
     b1a:	0d 83       	std	Y+5, r16	; 0x05
     b1c:	1e 83       	std	Y+6, r17	; 0x06
     b1e:	2f 83       	std	Y+7, r18	; 0x07
     b20:	38 87       	std	Y+8, r19	; 0x08
     b22:	48 1b       	sub	r20, r24
     b24:	59 0b       	sbc	r21, r25
     b26:	5c 83       	std	Y+4, r21	; 0x04
     b28:	4b 83       	std	Y+3, r20	; 0x03
     b2a:	ce 01       	movw	r24, r28
     b2c:	01 96       	adiw	r24, 0x01	; 1
     b2e:	04 d0       	rcall	.+8      	; 0xb38 <__pack_f>
     b30:	28 96       	adiw	r28, 0x08	; 8
     b32:	e8 e0       	ldi	r30, 0x08	; 8
     b34:	0c 94 37 10 	jmp	0x206e	; 0x206e <__epilogue_restores__+0x14>

00000b38 <__pack_f>:
     b38:	0f 93       	push	r16
     b3a:	1f 93       	push	r17
     b3c:	cf 93       	push	r28
     b3e:	df 93       	push	r29
     b40:	dc 01       	movw	r26, r24
     b42:	14 96       	adiw	r26, 0x04	; 4
     b44:	4d 91       	ld	r20, X+
     b46:	5d 91       	ld	r21, X+
     b48:	6d 91       	ld	r22, X+
     b4a:	7c 91       	ld	r23, X
     b4c:	17 97       	sbiw	r26, 0x07	; 7
     b4e:	11 96       	adiw	r26, 0x01	; 1
     b50:	ec 91       	ld	r30, X
     b52:	11 97       	sbiw	r26, 0x01	; 1
     b54:	8c 91       	ld	r24, X
     b56:	82 30       	cpi	r24, 0x02	; 2
     b58:	20 f4       	brcc	.+8      	; 0xb62 <__pack_f+0x2a>
     b5a:	60 61       	ori	r22, 0x10	; 16
     b5c:	8f ef       	ldi	r24, 0xFF	; 255
     b5e:	90 e0       	ldi	r25, 0x00	; 0
     b60:	a6 c0       	rjmp	.+332    	; 0xcae <__pack_f+0x176>
     b62:	84 30       	cpi	r24, 0x04	; 4
     b64:	09 f4       	brne	.+2      	; 0xb68 <__pack_f+0x30>
     b66:	9e c0       	rjmp	.+316    	; 0xca4 <__pack_f+0x16c>
     b68:	82 30       	cpi	r24, 0x02	; 2
     b6a:	09 f4       	brne	.+2      	; 0xb6e <__pack_f+0x36>
     b6c:	95 c0       	rjmp	.+298    	; 0xc98 <__pack_f+0x160>
     b6e:	41 15       	cp	r20, r1
     b70:	51 05       	cpc	r21, r1
     b72:	61 05       	cpc	r22, r1
     b74:	71 05       	cpc	r23, r1
     b76:	09 f4       	brne	.+2      	; 0xb7a <__pack_f+0x42>
     b78:	92 c0       	rjmp	.+292    	; 0xc9e <__pack_f+0x166>
     b7a:	12 96       	adiw	r26, 0x02	; 2
     b7c:	2d 91       	ld	r18, X+
     b7e:	3c 91       	ld	r19, X
     b80:	13 97       	sbiw	r26, 0x03	; 3
     b82:	22 38       	cpi	r18, 0x82	; 130
     b84:	8f ef       	ldi	r24, 0xFF	; 255
     b86:	38 07       	cpc	r19, r24
     b88:	0c f0       	brlt	.+2      	; 0xb8c <__pack_f+0x54>
     b8a:	58 c0       	rjmp	.+176    	; 0xc3c <__pack_f+0x104>
     b8c:	c2 e8       	ldi	r28, 0x82	; 130
     b8e:	df ef       	ldi	r29, 0xFF	; 255
     b90:	c2 1b       	sub	r28, r18
     b92:	d3 0b       	sbc	r29, r19
     b94:	ca 31       	cpi	r28, 0x1A	; 26
     b96:	d1 05       	cpc	r29, r1
     b98:	6c f5       	brge	.+90     	; 0xbf4 <__pack_f+0xbc>
     b9a:	8a 01       	movw	r16, r20
     b9c:	9b 01       	movw	r18, r22
     b9e:	0c 2e       	mov	r0, r28
     ba0:	04 c0       	rjmp	.+8      	; 0xbaa <__pack_f+0x72>
     ba2:	36 95       	lsr	r19
     ba4:	27 95       	ror	r18
     ba6:	17 95       	ror	r17
     ba8:	07 95       	ror	r16
     baa:	0a 94       	dec	r0
     bac:	d2 f7       	brpl	.-12     	; 0xba2 <__pack_f+0x6a>
     bae:	81 e0       	ldi	r24, 0x01	; 1
     bb0:	90 e0       	ldi	r25, 0x00	; 0
     bb2:	a0 e0       	ldi	r26, 0x00	; 0
     bb4:	b0 e0       	ldi	r27, 0x00	; 0
     bb6:	0c 2e       	mov	r0, r28
     bb8:	04 c0       	rjmp	.+8      	; 0xbc2 <__pack_f+0x8a>
     bba:	88 0f       	add	r24, r24
     bbc:	99 1f       	adc	r25, r25
     bbe:	aa 1f       	adc	r26, r26
     bc0:	bb 1f       	adc	r27, r27
     bc2:	0a 94       	dec	r0
     bc4:	d2 f7       	brpl	.-12     	; 0xbba <__pack_f+0x82>
     bc6:	01 97       	sbiw	r24, 0x01	; 1
     bc8:	a1 09       	sbc	r26, r1
     bca:	b1 09       	sbc	r27, r1
     bcc:	84 23       	and	r24, r20
     bce:	95 23       	and	r25, r21
     bd0:	a6 23       	and	r26, r22
     bd2:	b7 23       	and	r27, r23
     bd4:	41 e0       	ldi	r20, 0x01	; 1
     bd6:	50 e0       	ldi	r21, 0x00	; 0
     bd8:	60 e0       	ldi	r22, 0x00	; 0
     bda:	70 e0       	ldi	r23, 0x00	; 0
     bdc:	89 2b       	or	r24, r25
     bde:	8a 2b       	or	r24, r26
     be0:	8b 2b       	or	r24, r27
     be2:	19 f4       	brne	.+6      	; 0xbea <__pack_f+0xb2>
     be4:	40 e0       	ldi	r20, 0x00	; 0
     be6:	50 e0       	ldi	r21, 0x00	; 0
     be8:	ba 01       	movw	r22, r20
     bea:	40 2b       	or	r20, r16
     bec:	51 2b       	or	r21, r17
     bee:	62 2b       	or	r22, r18
     bf0:	73 2b       	or	r23, r19
     bf2:	03 c0       	rjmp	.+6      	; 0xbfa <__pack_f+0xc2>
     bf4:	40 e0       	ldi	r20, 0x00	; 0
     bf6:	50 e0       	ldi	r21, 0x00	; 0
     bf8:	ba 01       	movw	r22, r20
     bfa:	db 01       	movw	r26, r22
     bfc:	ca 01       	movw	r24, r20
     bfe:	8f 77       	andi	r24, 0x7F	; 127
     c00:	99 27       	eor	r25, r25
     c02:	aa 27       	eor	r26, r26
     c04:	bb 27       	eor	r27, r27
     c06:	80 34       	cpi	r24, 0x40	; 64
     c08:	91 05       	cpc	r25, r1
     c0a:	a1 05       	cpc	r26, r1
     c0c:	b1 05       	cpc	r27, r1
     c0e:	39 f4       	brne	.+14     	; 0xc1e <__pack_f+0xe6>
     c10:	47 ff       	sbrs	r20, 7
     c12:	09 c0       	rjmp	.+18     	; 0xc26 <__pack_f+0xee>
     c14:	40 5c       	subi	r20, 0xC0	; 192
     c16:	5f 4f       	sbci	r21, 0xFF	; 255
     c18:	6f 4f       	sbci	r22, 0xFF	; 255
     c1a:	7f 4f       	sbci	r23, 0xFF	; 255
     c1c:	04 c0       	rjmp	.+8      	; 0xc26 <__pack_f+0xee>
     c1e:	41 5c       	subi	r20, 0xC1	; 193
     c20:	5f 4f       	sbci	r21, 0xFF	; 255
     c22:	6f 4f       	sbci	r22, 0xFF	; 255
     c24:	7f 4f       	sbci	r23, 0xFF	; 255
     c26:	81 e0       	ldi	r24, 0x01	; 1
     c28:	90 e0       	ldi	r25, 0x00	; 0
     c2a:	41 15       	cp	r20, r1
     c2c:	51 05       	cpc	r21, r1
     c2e:	61 05       	cpc	r22, r1
     c30:	20 e4       	ldi	r18, 0x40	; 64
     c32:	72 07       	cpc	r23, r18
     c34:	48 f5       	brcc	.+82     	; 0xc88 <__pack_f+0x150>
     c36:	80 e0       	ldi	r24, 0x00	; 0
     c38:	90 e0       	ldi	r25, 0x00	; 0
     c3a:	26 c0       	rjmp	.+76     	; 0xc88 <__pack_f+0x150>
     c3c:	20 38       	cpi	r18, 0x80	; 128
     c3e:	31 05       	cpc	r19, r1
     c40:	8c f5       	brge	.+98     	; 0xca4 <__pack_f+0x16c>
     c42:	db 01       	movw	r26, r22
     c44:	ca 01       	movw	r24, r20
     c46:	8f 77       	andi	r24, 0x7F	; 127
     c48:	99 27       	eor	r25, r25
     c4a:	aa 27       	eor	r26, r26
     c4c:	bb 27       	eor	r27, r27
     c4e:	80 34       	cpi	r24, 0x40	; 64
     c50:	91 05       	cpc	r25, r1
     c52:	a1 05       	cpc	r26, r1
     c54:	b1 05       	cpc	r27, r1
     c56:	39 f4       	brne	.+14     	; 0xc66 <__pack_f+0x12e>
     c58:	47 ff       	sbrs	r20, 7
     c5a:	09 c0       	rjmp	.+18     	; 0xc6e <__pack_f+0x136>
     c5c:	40 5c       	subi	r20, 0xC0	; 192
     c5e:	5f 4f       	sbci	r21, 0xFF	; 255
     c60:	6f 4f       	sbci	r22, 0xFF	; 255
     c62:	7f 4f       	sbci	r23, 0xFF	; 255
     c64:	04 c0       	rjmp	.+8      	; 0xc6e <__pack_f+0x136>
     c66:	41 5c       	subi	r20, 0xC1	; 193
     c68:	5f 4f       	sbci	r21, 0xFF	; 255
     c6a:	6f 4f       	sbci	r22, 0xFF	; 255
     c6c:	7f 4f       	sbci	r23, 0xFF	; 255
     c6e:	77 fd       	sbrc	r23, 7
     c70:	04 c0       	rjmp	.+8      	; 0xc7a <__pack_f+0x142>
     c72:	c9 01       	movw	r24, r18
     c74:	81 58       	subi	r24, 0x81	; 129
     c76:	9f 4f       	sbci	r25, 0xFF	; 255
     c78:	07 c0       	rjmp	.+14     	; 0xc88 <__pack_f+0x150>
     c7a:	76 95       	lsr	r23
     c7c:	67 95       	ror	r22
     c7e:	57 95       	ror	r21
     c80:	47 95       	ror	r20
     c82:	c9 01       	movw	r24, r18
     c84:	80 58       	subi	r24, 0x80	; 128
     c86:	9f 4f       	sbci	r25, 0xFF	; 255
     c88:	97 e0       	ldi	r25, 0x07	; 7
     c8a:	76 95       	lsr	r23
     c8c:	67 95       	ror	r22
     c8e:	57 95       	ror	r21
     c90:	47 95       	ror	r20
     c92:	9a 95       	dec	r25
     c94:	d1 f7       	brne	.-12     	; 0xc8a <__pack_f+0x152>
     c96:	0b c0       	rjmp	.+22     	; 0xcae <__pack_f+0x176>
     c98:	80 e0       	ldi	r24, 0x00	; 0
     c9a:	90 e0       	ldi	r25, 0x00	; 0
     c9c:	05 c0       	rjmp	.+10     	; 0xca8 <__pack_f+0x170>
     c9e:	80 e0       	ldi	r24, 0x00	; 0
     ca0:	90 e0       	ldi	r25, 0x00	; 0
     ca2:	05 c0       	rjmp	.+10     	; 0xcae <__pack_f+0x176>
     ca4:	8f ef       	ldi	r24, 0xFF	; 255
     ca6:	90 e0       	ldi	r25, 0x00	; 0
     ca8:	40 e0       	ldi	r20, 0x00	; 0
     caa:	50 e0       	ldi	r21, 0x00	; 0
     cac:	ba 01       	movw	r22, r20
     cae:	98 2f       	mov	r25, r24
     cb0:	96 95       	lsr	r25
     cb2:	e0 fb       	bst	r30, 0
     cb4:	97 f9       	bld	r25, 7
     cb6:	36 2f       	mov	r19, r22
     cb8:	80 fb       	bst	r24, 0
     cba:	37 f9       	bld	r19, 7
     cbc:	64 2f       	mov	r22, r20
     cbe:	75 2f       	mov	r23, r21
     cc0:	83 2f       	mov	r24, r19
     cc2:	df 91       	pop	r29
     cc4:	cf 91       	pop	r28
     cc6:	1f 91       	pop	r17
     cc8:	0f 91       	pop	r16
     cca:	08 95       	ret

00000ccc <__unpack_f>:
     ccc:	cf 92       	push	r12
     cce:	df 92       	push	r13
     cd0:	ef 92       	push	r14
     cd2:	dc 01       	movw	r26, r24
     cd4:	fb 01       	movw	r30, r22
     cd6:	cc 90       	ld	r12, X
     cd8:	11 96       	adiw	r26, 0x01	; 1
     cda:	dc 90       	ld	r13, X
     cdc:	11 97       	sbiw	r26, 0x01	; 1
     cde:	12 96       	adiw	r26, 0x02	; 2
     ce0:	8c 91       	ld	r24, X
     ce2:	12 97       	sbiw	r26, 0x02	; 2
     ce4:	3f e7       	ldi	r19, 0x7F	; 127
     ce6:	e3 2e       	mov	r14, r19
     ce8:	e8 22       	and	r14, r24
     cea:	6e 2d       	mov	r22, r14
     cec:	a6 01       	movw	r20, r12
     cee:	70 e0       	ldi	r23, 0x00	; 0
     cf0:	98 2f       	mov	r25, r24
     cf2:	99 1f       	adc	r25, r25
     cf4:	99 27       	eor	r25, r25
     cf6:	99 1f       	adc	r25, r25
     cf8:	13 96       	adiw	r26, 0x03	; 3
     cfa:	2c 91       	ld	r18, X
     cfc:	82 2f       	mov	r24, r18
     cfe:	88 0f       	add	r24, r24
     d00:	89 2b       	or	r24, r25
     d02:	90 e0       	ldi	r25, 0x00	; 0
     d04:	27 fb       	bst	r18, 7
     d06:	22 27       	eor	r18, r18
     d08:	20 f9       	bld	r18, 0
     d0a:	21 83       	std	Z+1, r18	; 0x01
     d0c:	00 97       	sbiw	r24, 0x00	; 0
     d0e:	29 f5       	brne	.+74     	; 0xd5a <__unpack_f+0x8e>
     d10:	41 15       	cp	r20, r1
     d12:	51 05       	cpc	r21, r1
     d14:	61 05       	cpc	r22, r1
     d16:	71 05       	cpc	r23, r1
     d18:	11 f4       	brne	.+4      	; 0xd1e <__unpack_f+0x52>
     d1a:	82 e0       	ldi	r24, 0x02	; 2
     d1c:	27 c0       	rjmp	.+78     	; 0xd6c <__unpack_f+0xa0>
     d1e:	82 e8       	ldi	r24, 0x82	; 130
     d20:	9f ef       	ldi	r25, 0xFF	; 255
     d22:	93 83       	std	Z+3, r25	; 0x03
     d24:	82 83       	std	Z+2, r24	; 0x02
     d26:	27 e0       	ldi	r18, 0x07	; 7
     d28:	44 0f       	add	r20, r20
     d2a:	55 1f       	adc	r21, r21
     d2c:	66 1f       	adc	r22, r22
     d2e:	77 1f       	adc	r23, r23
     d30:	2a 95       	dec	r18
     d32:	d1 f7       	brne	.-12     	; 0xd28 <__unpack_f+0x5c>
     d34:	83 e0       	ldi	r24, 0x03	; 3
     d36:	80 83       	st	Z, r24
     d38:	09 c0       	rjmp	.+18     	; 0xd4c <__unpack_f+0x80>
     d3a:	44 0f       	add	r20, r20
     d3c:	55 1f       	adc	r21, r21
     d3e:	66 1f       	adc	r22, r22
     d40:	77 1f       	adc	r23, r23
     d42:	82 81       	ldd	r24, Z+2	; 0x02
     d44:	93 81       	ldd	r25, Z+3	; 0x03
     d46:	01 97       	sbiw	r24, 0x01	; 1
     d48:	93 83       	std	Z+3, r25	; 0x03
     d4a:	82 83       	std	Z+2, r24	; 0x02
     d4c:	41 15       	cp	r20, r1
     d4e:	51 05       	cpc	r21, r1
     d50:	61 05       	cpc	r22, r1
     d52:	80 e4       	ldi	r24, 0x40	; 64
     d54:	78 07       	cpc	r23, r24
     d56:	88 f3       	brcs	.-30     	; 0xd3a <__unpack_f+0x6e>
     d58:	20 c0       	rjmp	.+64     	; 0xd9a <__unpack_f+0xce>
     d5a:	8f 3f       	cpi	r24, 0xFF	; 255
     d5c:	91 05       	cpc	r25, r1
     d5e:	79 f4       	brne	.+30     	; 0xd7e <__unpack_f+0xb2>
     d60:	41 15       	cp	r20, r1
     d62:	51 05       	cpc	r21, r1
     d64:	61 05       	cpc	r22, r1
     d66:	71 05       	cpc	r23, r1
     d68:	19 f4       	brne	.+6      	; 0xd70 <__unpack_f+0xa4>
     d6a:	84 e0       	ldi	r24, 0x04	; 4
     d6c:	80 83       	st	Z, r24
     d6e:	19 c0       	rjmp	.+50     	; 0xda2 <__unpack_f+0xd6>
     d70:	e4 fe       	sbrs	r14, 4
     d72:	03 c0       	rjmp	.+6      	; 0xd7a <__unpack_f+0xae>
     d74:	81 e0       	ldi	r24, 0x01	; 1
     d76:	80 83       	st	Z, r24
     d78:	10 c0       	rjmp	.+32     	; 0xd9a <__unpack_f+0xce>
     d7a:	10 82       	st	Z, r1
     d7c:	0e c0       	rjmp	.+28     	; 0xd9a <__unpack_f+0xce>
     d7e:	8f 57       	subi	r24, 0x7F	; 127
     d80:	91 09       	sbc	r25, r1
     d82:	93 83       	std	Z+3, r25	; 0x03
     d84:	82 83       	std	Z+2, r24	; 0x02
     d86:	83 e0       	ldi	r24, 0x03	; 3
     d88:	80 83       	st	Z, r24
     d8a:	87 e0       	ldi	r24, 0x07	; 7
     d8c:	44 0f       	add	r20, r20
     d8e:	55 1f       	adc	r21, r21
     d90:	66 1f       	adc	r22, r22
     d92:	77 1f       	adc	r23, r23
     d94:	8a 95       	dec	r24
     d96:	d1 f7       	brne	.-12     	; 0xd8c <__unpack_f+0xc0>
     d98:	70 64       	ori	r23, 0x40	; 64
     d9a:	44 83       	std	Z+4, r20	; 0x04
     d9c:	55 83       	std	Z+5, r21	; 0x05
     d9e:	66 83       	std	Z+6, r22	; 0x06
     da0:	77 83       	std	Z+7, r23	; 0x07
     da2:	ef 90       	pop	r14
     da4:	df 90       	pop	r13
     da6:	cf 90       	pop	r12
     da8:	08 95       	ret

00000daa <__fpcmp_parts_f>:
     daa:	cf 93       	push	r28
     dac:	fc 01       	movw	r30, r24
     dae:	db 01       	movw	r26, r22
     db0:	90 81       	ld	r25, Z
     db2:	92 30       	cpi	r25, 0x02	; 2
     db4:	08 f4       	brcc	.+2      	; 0xdb8 <__fpcmp_parts_f+0xe>
     db6:	52 c0       	rjmp	.+164    	; 0xe5c <__fpcmp_parts_f+0xb2>
     db8:	8c 91       	ld	r24, X
     dba:	82 30       	cpi	r24, 0x02	; 2
     dbc:	08 f4       	brcc	.+2      	; 0xdc0 <__fpcmp_parts_f+0x16>
     dbe:	4e c0       	rjmp	.+156    	; 0xe5c <__fpcmp_parts_f+0xb2>
     dc0:	94 30       	cpi	r25, 0x04	; 4
     dc2:	71 f4       	brne	.+28     	; 0xde0 <__fpcmp_parts_f+0x36>
     dc4:	84 30       	cpi	r24, 0x04	; 4
     dc6:	39 f4       	brne	.+14     	; 0xdd6 <__fpcmp_parts_f+0x2c>
     dc8:	11 96       	adiw	r26, 0x01	; 1
     dca:	2c 91       	ld	r18, X
     dcc:	30 e0       	ldi	r19, 0x00	; 0
     dce:	81 81       	ldd	r24, Z+1	; 0x01
     dd0:	28 1b       	sub	r18, r24
     dd2:	31 09       	sbc	r19, r1
     dd4:	48 c0       	rjmp	.+144    	; 0xe66 <__fpcmp_parts_f+0xbc>
     dd6:	81 81       	ldd	r24, Z+1	; 0x01
     dd8:	88 23       	and	r24, r24
     dda:	09 f4       	brne	.+2      	; 0xdde <__fpcmp_parts_f+0x34>
     ddc:	3f c0       	rjmp	.+126    	; 0xe5c <__fpcmp_parts_f+0xb2>
     dde:	3b c0       	rjmp	.+118    	; 0xe56 <__fpcmp_parts_f+0xac>
     de0:	84 30       	cpi	r24, 0x04	; 4
     de2:	29 f4       	brne	.+10     	; 0xdee <__fpcmp_parts_f+0x44>
     de4:	11 96       	adiw	r26, 0x01	; 1
     de6:	8c 91       	ld	r24, X
     de8:	81 11       	cpse	r24, r1
     dea:	38 c0       	rjmp	.+112    	; 0xe5c <__fpcmp_parts_f+0xb2>
     dec:	34 c0       	rjmp	.+104    	; 0xe56 <__fpcmp_parts_f+0xac>
     dee:	92 30       	cpi	r25, 0x02	; 2
     df0:	19 f4       	brne	.+6      	; 0xdf8 <__fpcmp_parts_f+0x4e>
     df2:	82 30       	cpi	r24, 0x02	; 2
     df4:	b9 f7       	brne	.-18     	; 0xde4 <__fpcmp_parts_f+0x3a>
     df6:	35 c0       	rjmp	.+106    	; 0xe62 <__fpcmp_parts_f+0xb8>
     df8:	82 30       	cpi	r24, 0x02	; 2
     dfa:	69 f3       	breq	.-38     	; 0xdd6 <__fpcmp_parts_f+0x2c>
     dfc:	c1 81       	ldd	r28, Z+1	; 0x01
     dfe:	11 96       	adiw	r26, 0x01	; 1
     e00:	8c 91       	ld	r24, X
     e02:	11 97       	sbiw	r26, 0x01	; 1
     e04:	c8 13       	cpse	r28, r24
     e06:	1d c0       	rjmp	.+58     	; 0xe42 <__fpcmp_parts_f+0x98>
     e08:	22 81       	ldd	r18, Z+2	; 0x02
     e0a:	33 81       	ldd	r19, Z+3	; 0x03
     e0c:	12 96       	adiw	r26, 0x02	; 2
     e0e:	8d 91       	ld	r24, X+
     e10:	9c 91       	ld	r25, X
     e12:	13 97       	sbiw	r26, 0x03	; 3
     e14:	82 17       	cp	r24, r18
     e16:	93 07       	cpc	r25, r19
     e18:	0c f4       	brge	.+2      	; 0xe1c <__fpcmp_parts_f+0x72>
     e1a:	13 c0       	rjmp	.+38     	; 0xe42 <__fpcmp_parts_f+0x98>
     e1c:	28 17       	cp	r18, r24
     e1e:	39 07       	cpc	r19, r25
     e20:	0c f4       	brge	.+2      	; 0xe24 <__fpcmp_parts_f+0x7a>
     e22:	17 c0       	rjmp	.+46     	; 0xe52 <__fpcmp_parts_f+0xa8>
     e24:	44 81       	ldd	r20, Z+4	; 0x04
     e26:	55 81       	ldd	r21, Z+5	; 0x05
     e28:	66 81       	ldd	r22, Z+6	; 0x06
     e2a:	77 81       	ldd	r23, Z+7	; 0x07
     e2c:	14 96       	adiw	r26, 0x04	; 4
     e2e:	8d 91       	ld	r24, X+
     e30:	9d 91       	ld	r25, X+
     e32:	0d 90       	ld	r0, X+
     e34:	bc 91       	ld	r27, X
     e36:	a0 2d       	mov	r26, r0
     e38:	84 17       	cp	r24, r20
     e3a:	95 07       	cpc	r25, r21
     e3c:	a6 07       	cpc	r26, r22
     e3e:	b7 07       	cpc	r27, r23
     e40:	18 f4       	brcc	.+6      	; 0xe48 <__fpcmp_parts_f+0x9e>
     e42:	c1 11       	cpse	r28, r1
     e44:	08 c0       	rjmp	.+16     	; 0xe56 <__fpcmp_parts_f+0xac>
     e46:	0a c0       	rjmp	.+20     	; 0xe5c <__fpcmp_parts_f+0xb2>
     e48:	48 17       	cp	r20, r24
     e4a:	59 07       	cpc	r21, r25
     e4c:	6a 07       	cpc	r22, r26
     e4e:	7b 07       	cpc	r23, r27
     e50:	40 f4       	brcc	.+16     	; 0xe62 <__fpcmp_parts_f+0xb8>
     e52:	c1 11       	cpse	r28, r1
     e54:	03 c0       	rjmp	.+6      	; 0xe5c <__fpcmp_parts_f+0xb2>
     e56:	2f ef       	ldi	r18, 0xFF	; 255
     e58:	3f ef       	ldi	r19, 0xFF	; 255
     e5a:	05 c0       	rjmp	.+10     	; 0xe66 <__fpcmp_parts_f+0xbc>
     e5c:	21 e0       	ldi	r18, 0x01	; 1
     e5e:	30 e0       	ldi	r19, 0x00	; 0
     e60:	02 c0       	rjmp	.+4      	; 0xe66 <__fpcmp_parts_f+0xbc>
     e62:	20 e0       	ldi	r18, 0x00	; 0
     e64:	30 e0       	ldi	r19, 0x00	; 0
     e66:	c9 01       	movw	r24, r18
     e68:	cf 91       	pop	r28
     e6a:	08 95       	ret

00000e6c <send_lcd_byte>:
	#else
		//round up by default
		__ticks_dc = (uint32_t)(ceil(fabs(__tmp)));
	#endif

	__builtin_avr_delay_cycles(__ticks_dc);
     e6c:	61 11       	cpse	r22, r1
     e6e:	02 c0       	rjmp	.+4      	; 0xe74 <send_lcd_byte+0x8>
     e70:	dd 98       	cbi	0x1b, 5	; 27
     e72:	01 c0       	rjmp	.+2      	; 0xe76 <send_lcd_byte+0xa>
     e74:	dd 9a       	sbi	0x1b, 5	; 27
     e76:	88 23       	and	r24, r24
     e78:	34 f4       	brge	.+12     	; 0xe86 <send_lcd_byte+0x1a>
     e7a:	e5 e6       	ldi	r30, 0x65	; 101
     e7c:	f0 e0       	ldi	r31, 0x00	; 0
     e7e:	90 81       	ld	r25, Z
     e80:	94 60       	ori	r25, 0x04	; 4
     e82:	90 83       	st	Z, r25
     e84:	05 c0       	rjmp	.+10     	; 0xe90 <send_lcd_byte+0x24>
     e86:	e5 e6       	ldi	r30, 0x65	; 101
     e88:	f0 e0       	ldi	r31, 0x00	; 0
     e8a:	90 81       	ld	r25, Z
     e8c:	9b 7f       	andi	r25, 0xFB	; 251
     e8e:	90 83       	st	Z, r25
     e90:	86 ff       	sbrs	r24, 6
     e92:	02 c0       	rjmp	.+4      	; 0xe98 <send_lcd_byte+0x2c>
     e94:	af 9a       	sbi	0x15, 7	; 21
     e96:	01 c0       	rjmp	.+2      	; 0xe9a <send_lcd_byte+0x2e>
     e98:	af 98       	cbi	0x15, 7	; 21
     e9a:	85 ff       	sbrs	r24, 5
     e9c:	02 c0       	rjmp	.+4      	; 0xea2 <send_lcd_byte+0x36>
     e9e:	de 9a       	sbi	0x1b, 6	; 27
     ea0:	01 c0       	rjmp	.+2      	; 0xea4 <send_lcd_byte+0x38>
     ea2:	de 98       	cbi	0x1b, 6	; 27
     ea4:	84 ff       	sbrs	r24, 4
     ea6:	02 c0       	rjmp	.+4      	; 0xeac <send_lcd_byte+0x40>
     ea8:	df 9a       	sbi	0x1b, 7	; 27
     eaa:	01 c0       	rjmp	.+2      	; 0xeae <send_lcd_byte+0x42>
     eac:	df 98       	cbi	0x1b, 7	; 27
     eae:	e7 ec       	ldi	r30, 0xC7	; 199
     eb0:	f0 e0       	ldi	r31, 0x00	; 0
     eb2:	31 97       	sbiw	r30, 0x01	; 1
     eb4:	f1 f7       	brne	.-4      	; 0xeb2 <send_lcd_byte+0x46>
     eb6:	00 c0       	rjmp	.+0      	; 0xeb8 <send_lcd_byte+0x4c>
     eb8:	00 00       	nop
     eba:	dc 9a       	sbi	0x1b, 4	; 27
     ebc:	e7 ec       	ldi	r30, 0xC7	; 199
     ebe:	f0 e0       	ldi	r31, 0x00	; 0
     ec0:	31 97       	sbiw	r30, 0x01	; 1
     ec2:	f1 f7       	brne	.-4      	; 0xec0 <send_lcd_byte+0x54>
     ec4:	00 c0       	rjmp	.+0      	; 0xec6 <send_lcd_byte+0x5a>
     ec6:	00 00       	nop
     ec8:	dc 98       	cbi	0x1b, 4	; 27
     eca:	e7 ec       	ldi	r30, 0xC7	; 199
     ecc:	f0 e0       	ldi	r31, 0x00	; 0
     ece:	31 97       	sbiw	r30, 0x01	; 1
     ed0:	f1 f7       	brne	.-4      	; 0xece <send_lcd_byte+0x62>
     ed2:	00 c0       	rjmp	.+0      	; 0xed4 <send_lcd_byte+0x68>
     ed4:	00 00       	nop
     ed6:	83 ff       	sbrs	r24, 3
     ed8:	06 c0       	rjmp	.+12     	; 0xee6 <send_lcd_byte+0x7a>
     eda:	e5 e6       	ldi	r30, 0x65	; 101
     edc:	f0 e0       	ldi	r31, 0x00	; 0
     ede:	90 81       	ld	r25, Z
     ee0:	94 60       	ori	r25, 0x04	; 4
     ee2:	90 83       	st	Z, r25
     ee4:	05 c0       	rjmp	.+10     	; 0xef0 <send_lcd_byte+0x84>
     ee6:	e5 e6       	ldi	r30, 0x65	; 101
     ee8:	f0 e0       	ldi	r31, 0x00	; 0
     eea:	90 81       	ld	r25, Z
     eec:	9b 7f       	andi	r25, 0xFB	; 251
     eee:	90 83       	st	Z, r25
     ef0:	82 ff       	sbrs	r24, 2
     ef2:	02 c0       	rjmp	.+4      	; 0xef8 <send_lcd_byte+0x8c>
     ef4:	af 9a       	sbi	0x15, 7	; 21
     ef6:	01 c0       	rjmp	.+2      	; 0xefa <send_lcd_byte+0x8e>
     ef8:	af 98       	cbi	0x15, 7	; 21
     efa:	81 ff       	sbrs	r24, 1
     efc:	02 c0       	rjmp	.+4      	; 0xf02 <send_lcd_byte+0x96>
     efe:	de 9a       	sbi	0x1b, 6	; 27
     f00:	01 c0       	rjmp	.+2      	; 0xf04 <send_lcd_byte+0x98>
     f02:	de 98       	cbi	0x1b, 6	; 27
     f04:	80 ff       	sbrs	r24, 0
     f06:	02 c0       	rjmp	.+4      	; 0xf0c <send_lcd_byte+0xa0>
     f08:	df 9a       	sbi	0x1b, 7	; 27
     f0a:	01 c0       	rjmp	.+2      	; 0xf0e <send_lcd_byte+0xa2>
     f0c:	df 98       	cbi	0x1b, 7	; 27
     f0e:	87 ec       	ldi	r24, 0xC7	; 199
     f10:	90 e0       	ldi	r25, 0x00	; 0
     f12:	01 97       	sbiw	r24, 0x01	; 1
     f14:	f1 f7       	brne	.-4      	; 0xf12 <send_lcd_byte+0xa6>
     f16:	00 c0       	rjmp	.+0      	; 0xf18 <send_lcd_byte+0xac>
     f18:	00 00       	nop
     f1a:	dc 9a       	sbi	0x1b, 4	; 27
     f1c:	e7 ec       	ldi	r30, 0xC7	; 199
     f1e:	f0 e0       	ldi	r31, 0x00	; 0
     f20:	31 97       	sbiw	r30, 0x01	; 1
     f22:	f1 f7       	brne	.-4      	; 0xf20 <send_lcd_byte+0xb4>
     f24:	00 c0       	rjmp	.+0      	; 0xf26 <send_lcd_byte+0xba>
     f26:	00 00       	nop
     f28:	dc 98       	cbi	0x1b, 4	; 27
     f2a:	87 ec       	ldi	r24, 0xC7	; 199
     f2c:	90 e0       	ldi	r25, 0x00	; 0
     f2e:	01 97       	sbiw	r24, 0x01	; 1
     f30:	f1 f7       	brne	.-4      	; 0xf2e <send_lcd_byte+0xc2>
     f32:	00 c0       	rjmp	.+0      	; 0xf34 <send_lcd_byte+0xc8>
     f34:	00 00       	nop
     f36:	08 95       	ret

00000f38 <init_LCD>:
     f38:	8f e3       	ldi	r24, 0x3F	; 63
     f3a:	9c e9       	ldi	r25, 0x9C	; 156
     f3c:	01 97       	sbiw	r24, 0x01	; 1
     f3e:	f1 f7       	brne	.-4      	; 0xf3c <init_LCD+0x4>
     f40:	00 c0       	rjmp	.+0      	; 0xf42 <init_LCD+0xa>
     f42:	00 00       	nop
     f44:	8a b3       	in	r24, 0x1a	; 26
     f46:	80 6f       	ori	r24, 0xF0	; 240
     f48:	8a bb       	out	0x1a, r24	; 26
     f4a:	df 98       	cbi	0x1b, 7	; 27
     f4c:	a7 9a       	sbi	0x14, 7	; 20
     f4e:	af 98       	cbi	0x15, 7	; 21
     f50:	e4 e6       	ldi	r30, 0x64	; 100
     f52:	f0 e0       	ldi	r31, 0x00	; 0
     f54:	80 81       	ld	r24, Z
     f56:	84 60       	ori	r24, 0x04	; 4
     f58:	80 83       	st	Z, r24
     f5a:	e5 e6       	ldi	r30, 0x65	; 101
     f5c:	f0 e0       	ldi	r31, 0x00	; 0
     f5e:	80 81       	ld	r24, Z
     f60:	8b 7f       	andi	r24, 0xFB	; 251
     f62:	80 83       	st	Z, r24
     f64:	8f e3       	ldi	r24, 0x3F	; 63
     f66:	9c e9       	ldi	r25, 0x9C	; 156
     f68:	01 97       	sbiw	r24, 0x01	; 1
     f6a:	f1 f7       	brne	.-4      	; 0xf68 <init_LCD+0x30>
     f6c:	00 c0       	rjmp	.+0      	; 0xf6e <init_LCD+0x36>
     f6e:	00 00       	nop
     f70:	df 9a       	sbi	0x1b, 7	; 27
     f72:	de 9a       	sbi	0x1b, 6	; 27
     f74:	8f e1       	ldi	r24, 0x1F	; 31
     f76:	9e e4       	ldi	r25, 0x4E	; 78
     f78:	01 97       	sbiw	r24, 0x01	; 1
     f7a:	f1 f7       	brne	.-4      	; 0xf78 <init_LCD+0x40>
     f7c:	00 c0       	rjmp	.+0      	; 0xf7e <init_LCD+0x46>
     f7e:	00 00       	nop
     f80:	df 98       	cbi	0x1b, 7	; 27
     f82:	8f e3       	ldi	r24, 0x3F	; 63
     f84:	9f e1       	ldi	r25, 0x1F	; 31
     f86:	01 97       	sbiw	r24, 0x01	; 1
     f88:	f1 f7       	brne	.-4      	; 0xf86 <init_LCD+0x4e>
     f8a:	00 c0       	rjmp	.+0      	; 0xf8c <init_LCD+0x54>
     f8c:	00 00       	nop
     f8e:	dc 9a       	sbi	0x1b, 4	; 27
     f90:	8f e3       	ldi	r24, 0x3F	; 63
     f92:	9f e1       	ldi	r25, 0x1F	; 31
     f94:	01 97       	sbiw	r24, 0x01	; 1
     f96:	f1 f7       	brne	.-4      	; 0xf94 <init_LCD+0x5c>
     f98:	00 c0       	rjmp	.+0      	; 0xf9a <init_LCD+0x62>
     f9a:	00 00       	nop
     f9c:	dc 98       	cbi	0x1b, 4	; 27
     f9e:	8f e3       	ldi	r24, 0x3F	; 63
     fa0:	9f e1       	ldi	r25, 0x1F	; 31
     fa2:	01 97       	sbiw	r24, 0x01	; 1
     fa4:	f1 f7       	brne	.-4      	; 0xfa2 <init_LCD+0x6a>
     fa6:	00 c0       	rjmp	.+0      	; 0xfa8 <init_LCD+0x70>
     fa8:	00 00       	nop
     faa:	60 e0       	ldi	r22, 0x00	; 0
     fac:	88 e2       	ldi	r24, 0x28	; 40
     fae:	5e df       	rcall	.-324    	; 0xe6c <send_lcd_byte>
     fb0:	60 e0       	ldi	r22, 0x00	; 0
     fb2:	8c e0       	ldi	r24, 0x0C	; 12
     fb4:	5b df       	rcall	.-330    	; 0xe6c <send_lcd_byte>
     fb6:	60 e0       	ldi	r22, 0x00	; 0
     fb8:	86 e0       	ldi	r24, 0x06	; 6
     fba:	58 df       	rcall	.-336    	; 0xe6c <send_lcd_byte>
     fbc:	60 e0       	ldi	r22, 0x00	; 0
     fbe:	81 e0       	ldi	r24, 0x01	; 1
     fc0:	55 df       	rcall	.-342    	; 0xe6c <send_lcd_byte>
     fc2:	9f ef       	ldi	r25, 0xFF	; 255
     fc4:	29 ef       	ldi	r18, 0xF9	; 249
     fc6:	80 e0       	ldi	r24, 0x00	; 0
     fc8:	91 50       	subi	r25, 0x01	; 1
     fca:	20 40       	sbci	r18, 0x00	; 0
     fcc:	80 40       	sbci	r24, 0x00	; 0
     fce:	e1 f7       	brne	.-8      	; 0xfc8 <init_LCD+0x90>
     fd0:	00 c0       	rjmp	.+0      	; 0xfd2 <init_LCD+0x9a>
     fd2:	00 00       	nop
     fd4:	08 95       	ret

00000fd6 <send_lcd_symbol>:
     fd6:	61 e0       	ldi	r22, 0x01	; 1
     fd8:	49 cf       	rjmp	.-366    	; 0xe6c <send_lcd_byte>

00000fda <set_lcd_position>:
     fda:	82 30       	cpi	r24, 0x02	; 2
     fdc:	61 f0       	breq	.+24     	; 0xff6 <set_lcd_position+0x1c>
     fde:	18 f4       	brcc	.+6      	; 0xfe6 <set_lcd_position+0xc>
     fe0:	81 30       	cpi	r24, 0x01	; 1
     fe2:	89 f4       	brne	.+34     	; 0x1006 <set_lcd_position+0x2c>
     fe4:	05 c0       	rjmp	.+10     	; 0xff0 <set_lcd_position+0x16>
     fe6:	83 30       	cpi	r24, 0x03	; 3
     fe8:	49 f0       	breq	.+18     	; 0xffc <set_lcd_position+0x22>
     fea:	84 30       	cpi	r24, 0x04	; 4
     fec:	61 f4       	brne	.+24     	; 0x1006 <set_lcd_position+0x2c>
     fee:	09 c0       	rjmp	.+18     	; 0x1002 <set_lcd_position+0x28>
     ff0:	86 2f       	mov	r24, r22
     ff2:	81 58       	subi	r24, 0x81	; 129
     ff4:	08 c0       	rjmp	.+16     	; 0x1006 <set_lcd_position+0x2c>
     ff6:	86 2f       	mov	r24, r22
     ff8:	81 54       	subi	r24, 0x41	; 65
     ffa:	05 c0       	rjmp	.+10     	; 0x1006 <set_lcd_position+0x2c>
     ffc:	86 2f       	mov	r24, r22
     ffe:	8d 56       	subi	r24, 0x6D	; 109
    1000:	02 c0       	rjmp	.+4      	; 0x1006 <set_lcd_position+0x2c>
    1002:	86 2f       	mov	r24, r22
    1004:	8d 52       	subi	r24, 0x2D	; 45
    1006:	60 e0       	ldi	r22, 0x00	; 0
    1008:	31 cf       	rjmp	.-414    	; 0xe6c <send_lcd_byte>

0000100a <send_lcd_string_P>:
    100a:	cf 93       	push	r28
    100c:	df 93       	push	r29
    100e:	ec 01       	movw	r28, r24
    1010:	fe 01       	movw	r30, r28
    1012:	24 91       	lpm	r18, Z
    1014:	22 23       	and	r18, r18
    1016:	51 f0       	breq	.+20     	; 0x102c <send_lcd_string_P+0x22>
    1018:	fc 01       	movw	r30, r24
    101a:	84 91       	lpm	r24, Z
    101c:	61 e0       	ldi	r22, 0x01	; 1
    101e:	26 df       	rcall	.-436    	; 0xe6c <send_lcd_byte>
    1020:	21 96       	adiw	r28, 0x01	; 1
    1022:	ce 01       	movw	r24, r28
    1024:	fe 01       	movw	r30, r28
    1026:	24 91       	lpm	r18, Z
    1028:	21 11       	cpse	r18, r1
    102a:	f6 cf       	rjmp	.-20     	; 0x1018 <send_lcd_string_P+0xe>
    102c:	df 91       	pop	r29
    102e:	cf 91       	pop	r28
    1030:	08 95       	ret

00001032 <detect_symbol>:
//Input: Digit,
//Output: Symbol
//***************************************************************************************
unsigned char detect_symbol(unsigned char temp_det_sym)
{
	switch(temp_det_sym)
    1032:	85 30       	cpi	r24, 0x05	; 5
    1034:	d9 f0       	breq	.+54     	; 0x106c <detect_symbol+0x3a>
    1036:	58 f4       	brcc	.+22     	; 0x104e <detect_symbol+0x1c>
    1038:	82 30       	cpi	r24, 0x02	; 2
    103a:	91 f0       	breq	.+36     	; 0x1060 <detect_symbol+0x2e>
    103c:	18 f4       	brcc	.+6      	; 0x1044 <detect_symbol+0x12>
    103e:	81 30       	cpi	r24, 0x01	; 1
    1040:	69 f4       	brne	.+26     	; 0x105c <detect_symbol+0x2a>
    1042:	1e c0       	rjmp	.+60     	; 0x1080 <detect_symbol+0x4e>
    1044:	83 30       	cpi	r24, 0x03	; 3
    1046:	71 f0       	breq	.+28     	; 0x1064 <detect_symbol+0x32>
    1048:	84 30       	cpi	r24, 0x04	; 4
    104a:	41 f4       	brne	.+16     	; 0x105c <detect_symbol+0x2a>
    104c:	0d c0       	rjmp	.+26     	; 0x1068 <detect_symbol+0x36>
    104e:	87 30       	cpi	r24, 0x07	; 7
    1050:	89 f0       	breq	.+34     	; 0x1074 <detect_symbol+0x42>
    1052:	70 f0       	brcs	.+28     	; 0x1070 <detect_symbol+0x3e>
    1054:	88 30       	cpi	r24, 0x08	; 8
    1056:	81 f0       	breq	.+32     	; 0x1078 <detect_symbol+0x46>
    1058:	89 30       	cpi	r24, 0x09	; 9
    105a:	81 f0       	breq	.+32     	; 0x107c <detect_symbol+0x4a>
	{
		case 0:{return '0';}break;
    105c:	80 e3       	ldi	r24, 0x30	; 48
    105e:	08 95       	ret
		case 1:{return '1';}break;
		case 2:{return '2';}break;	
    1060:	82 e3       	ldi	r24, 0x32	; 50
    1062:	08 95       	ret
		case 3:{return '3';}break;
    1064:	83 e3       	ldi	r24, 0x33	; 51
    1066:	08 95       	ret
		case 4:{return '4';}break;
    1068:	84 e3       	ldi	r24, 0x34	; 52
    106a:	08 95       	ret
		case 5:{return '5';}break;
    106c:	85 e3       	ldi	r24, 0x35	; 53
    106e:	08 95       	ret
		case 6:{return '6';}break;	
    1070:	86 e3       	ldi	r24, 0x36	; 54
    1072:	08 95       	ret
		case 7:{return '7';}break;
    1074:	87 e3       	ldi	r24, 0x37	; 55
    1076:	08 95       	ret
		case 8:{return '8';}break;
    1078:	88 e3       	ldi	r24, 0x38	; 56
    107a:	08 95       	ret
		case 9:{return '9';}break;
    107c:	89 e3       	ldi	r24, 0x39	; 57
    107e:	08 95       	ret
unsigned char detect_symbol(unsigned char temp_det_sym)
{
	switch(temp_det_sym)
	{
		case 0:{return '0';}break;
		case 1:{return '1';}break;
    1080:	81 e3       	ldi	r24, 0x31	; 49
		case 7:{return '7';}break;
		case 8:{return '8';}break;
		case 9:{return '9';}break;
		default:return '0';
	};
};
    1082:	08 95       	ret

00001084 <detect_short_string>:
//***************************************************************************************
//      2- 
//***************************************************************************************
void detect_short_string(unsigned long int temp_volt)
{
    1084:	8f 92       	push	r8
    1086:	9f 92       	push	r9
    1088:	af 92       	push	r10
    108a:	bf 92       	push	r11
    108c:	cf 92       	push	r12
    108e:	df 92       	push	r13
    1090:	ef 92       	push	r14
    1092:	ff 92       	push	r15
    1094:	cf 93       	push	r28
	unsigned char j;
	char det_string[3]={0,0,0};
	j=1;
	while(j<=2)
	{
		det_string[j]=detect_symbol(temp_volt%10);
    1096:	0f 2e       	mov	r0, r31
    1098:	fa e0       	ldi	r31, 0x0A	; 10
    109a:	cf 2e       	mov	r12, r31
    109c:	d1 2c       	mov	r13, r1
    109e:	e1 2c       	mov	r14, r1
    10a0:	f1 2c       	mov	r15, r1
    10a2:	f0 2d       	mov	r31, r0
    10a4:	a7 01       	movw	r20, r14
    10a6:	96 01       	movw	r18, r12
    10a8:	75 d7       	rcall	.+3818   	; 0x1f94 <__udivmodsi4>
    10aa:	49 01       	movw	r8, r18
    10ac:	5a 01       	movw	r10, r20
    10ae:	86 2f       	mov	r24, r22
    10b0:	c0 df       	rcall	.-128    	; 0x1032 <detect_symbol>
    10b2:	c8 2f       	mov	r28, r24
    10b4:	c5 01       	movw	r24, r10
    10b6:	b4 01       	movw	r22, r8
    10b8:	a7 01       	movw	r20, r14
    10ba:	96 01       	movw	r18, r12
    10bc:	6b d7       	rcall	.+3798   	; 0x1f94 <__udivmodsi4>
    10be:	86 2f       	mov	r24, r22
    10c0:	b8 df       	rcall	.-144    	; 0x1032 <detect_symbol>
		j++;
	};
	j=2;
	while(j>=1)
	{
		send_lcd_symbol(det_string[j]);
    10c2:	89 df       	rcall	.-238    	; 0xfd6 <send_lcd_symbol>
    10c4:	8c 2f       	mov	r24, r28
    10c6:	87 df       	rcall	.-242    	; 0xfd6 <send_lcd_symbol>
		j--;
	};	
};
    10c8:	cf 91       	pop	r28
    10ca:	ff 90       	pop	r15
    10cc:	ef 90       	pop	r14
    10ce:	df 90       	pop	r13
    10d0:	cf 90       	pop	r12
    10d2:	bf 90       	pop	r11
    10d4:	af 90       	pop	r10
    10d6:	9f 90       	pop	r9
    10d8:	8f 90       	pop	r8
    10da:	08 95       	ret

000010dc <detect_short_3_string>:
//***************************************************************************************
//      3- 
//***************************************************************************************
void detect_short_3_string(unsigned long int temp_volt)
{
    10dc:	6f 92       	push	r6
    10de:	7f 92       	push	r7
    10e0:	8f 92       	push	r8
    10e2:	9f 92       	push	r9
    10e4:	af 92       	push	r10
    10e6:	bf 92       	push	r11
    10e8:	cf 92       	push	r12
    10ea:	df 92       	push	r13
    10ec:	ef 92       	push	r14
    10ee:	ff 92       	push	r15
    10f0:	0f 93       	push	r16
    10f2:	1f 93       	push	r17
    10f4:	cf 93       	push	r28
    10f6:	df 93       	push	r29
    10f8:	00 d0       	rcall	.+0      	; 0x10fa <detect_short_3_string+0x1e>
    10fa:	00 d0       	rcall	.+0      	; 0x10fc <detect_short_3_string+0x20>
    10fc:	cd b7       	in	r28, 0x3d	; 61
    10fe:	de b7       	in	r29, 0x3e	; 62
	unsigned char j;
	char det_string[4]={0,0,0,0};
    1100:	19 82       	std	Y+1, r1	; 0x01
    1102:	1a 82       	std	Y+2, r1	; 0x02
    1104:	1b 82       	std	Y+3, r1	; 0x03
    1106:	1c 82       	std	Y+4, r1	; 0x04
    1108:	8e 01       	movw	r16, r28
    110a:	0e 5f       	subi	r16, 0xFE	; 254
    110c:	1f 4f       	sbci	r17, 0xFF	; 255
	};	
};
//***************************************************************************************
//      3- 
//***************************************************************************************
void detect_short_3_string(unsigned long int temp_volt)
    110e:	5e 01       	movw	r10, r28
    1110:	25 e0       	ldi	r18, 0x05	; 5
    1112:	a2 0e       	add	r10, r18
    1114:	b1 1c       	adc	r11, r1
	unsigned char j;
	char det_string[4]={0,0,0,0};
	j=1;
	while(j<=3)
	{
		det_string[j]=detect_symbol(temp_volt%10);
    1116:	0f 2e       	mov	r0, r31
    1118:	fa e0       	ldi	r31, 0x0A	; 10
    111a:	cf 2e       	mov	r12, r31
    111c:	d1 2c       	mov	r13, r1
    111e:	e1 2c       	mov	r14, r1
    1120:	f1 2c       	mov	r15, r1
    1122:	f0 2d       	mov	r31, r0
    1124:	a7 01       	movw	r20, r14
    1126:	96 01       	movw	r18, r12
    1128:	35 d7       	rcall	.+3690   	; 0x1f94 <__udivmodsi4>
    112a:	62 2e       	mov	r6, r18
    112c:	73 2e       	mov	r7, r19
    112e:	84 2e       	mov	r8, r20
    1130:	95 2e       	mov	r9, r21
    1132:	86 2f       	mov	r24, r22
    1134:	7e df       	rcall	.-260    	; 0x1032 <detect_symbol>
    1136:	f8 01       	movw	r30, r16
    1138:	81 93       	st	Z+, r24
    113a:	8f 01       	movw	r16, r30
		temp_volt=temp_volt/10;
    113c:	66 2d       	mov	r22, r6
    113e:	77 2d       	mov	r23, r7
    1140:	88 2d       	mov	r24, r8
    1142:	99 2d       	mov	r25, r9
void detect_short_3_string(unsigned long int temp_volt)
{
	unsigned char j;
	char det_string[4]={0,0,0,0};
	j=1;
	while(j<=3)
    1144:	ea 15       	cp	r30, r10
    1146:	fb 05       	cpc	r31, r11
    1148:	69 f7       	brne	.-38     	; 0x1124 <__stack+0x25>
		j++;
	};
	j=3;
	while(j>=1)
	{
		send_lcd_symbol(det_string[j]);
    114a:	8c 81       	ldd	r24, Y+4	; 0x04
    114c:	44 df       	rcall	.-376    	; 0xfd6 <send_lcd_symbol>
    114e:	8b 81       	ldd	r24, Y+3	; 0x03
    1150:	42 df       	rcall	.-380    	; 0xfd6 <send_lcd_symbol>
    1152:	8a 81       	ldd	r24, Y+2	; 0x02
    1154:	40 df       	rcall	.-384    	; 0xfd6 <send_lcd_symbol>
		j--;
	};	
};
    1156:	0f 90       	pop	r0
    1158:	0f 90       	pop	r0
    115a:	0f 90       	pop	r0
    115c:	0f 90       	pop	r0
    115e:	df 91       	pop	r29
    1160:	cf 91       	pop	r28
    1162:	1f 91       	pop	r17
    1164:	0f 91       	pop	r16
    1166:	ff 90       	pop	r15
    1168:	ef 90       	pop	r14
    116a:	df 90       	pop	r13
    116c:	cf 90       	pop	r12
    116e:	bf 90       	pop	r11
    1170:	af 90       	pop	r10
    1172:	9f 90       	pop	r9
    1174:	8f 90       	pop	r8
    1176:	7f 90       	pop	r7
    1178:	6f 90       	pop	r6
    117a:	08 95       	ret

0000117c <init_mcu>:
	// Timer/Counter 0 initialization
	// Clock source: System Clock
	// Clock value: 250,000 kHz
	// Mode: Normal top=0xFF
	// OC0 output: Disconnected
	ASSR=0x00;
    117c:	10 be       	out	0x30, r1	; 48
	TCCR0=0x04;
    117e:	84 e0       	ldi	r24, 0x04	; 4
    1180:	83 bf       	out	0x33, r24	; 51
	TCNT0=0x00;
    1182:	12 be       	out	0x32, r1	; 50
	OCR0=0x00;
    1184:	11 be       	out	0x31, r1	; 49
	// Timer1 Overflow Interrupt: On
	// Input Capture Interrupt: Off
	// Compare A Match Interrupt: Off
	// Compare B Match Interrupt: Off
	// Compare C Match Interrupt: Off
	TCCR1A=0x00;
    1186:	1f bc       	out	0x2f, r1	; 47
	TCCR1B=0x04;
    1188:	8e bd       	out	0x2e, r24	; 46
	TCNT1H=0x0B;
    118a:	8b e0       	ldi	r24, 0x0B	; 11
    118c:	8d bd       	out	0x2d, r24	; 45
	TCNT1L=0xDC;
    118e:	8c ed       	ldi	r24, 0xDC	; 220
    1190:	8c bd       	out	0x2c, r24	; 44
	ICR1H=0x00;
    1192:	17 bc       	out	0x27, r1	; 39
	ICR1L=0x00;
    1194:	16 bc       	out	0x26, r1	; 38
	OCR1AH=0x00;
    1196:	1b bc       	out	0x2b, r1	; 43
	OCR1AL=0x00;
    1198:	1a bc       	out	0x2a, r1	; 42
	OCR1BH=0x00;
    119a:	19 bc       	out	0x29, r1	; 41
	OCR1BL=0x00;
    119c:	18 bc       	out	0x28, r1	; 40
	OCR1CH=0x00;
    119e:	10 92 79 00 	sts	0x0079, r1
	OCR1CL=0x00;
    11a2:	10 92 78 00 	sts	0x0078, r1
	// Timer/Counter 2 initialization
	// Clock source: System Clock
	// Clock value: Timer2 Stopped
	// Mode: Normal top=0xFF
	// OC2 output: Disconnected
	TCCR2=0x00;
    11a6:	15 bc       	out	0x25, r1	; 37
	TCNT2=0x00;
    11a8:	14 bc       	out	0x24, r1	; 36
	OCR2=0x00;
    11aa:	13 bc       	out	0x23, r1	; 35
	// Timer3 Overflow Interrupt: Off
	// Input Capture Interrupt: Off
	// Compare A Match Interrupt: Off
	// Compare B Match Interrupt: Off
	// Compare C Match Interrupt: Off
	TCCR3A=0x00;
    11ac:	10 92 8b 00 	sts	0x008B, r1
	TCCR3B=0x00;
    11b0:	10 92 8a 00 	sts	0x008A, r1
	TCNT3H=0x00;
    11b4:	10 92 89 00 	sts	0x0089, r1
	TCNT3L=0x00;
    11b8:	10 92 88 00 	sts	0x0088, r1
	ICR3H=0x00;
    11bc:	10 92 81 00 	sts	0x0081, r1
	ICR3L=0x00;
    11c0:	10 92 80 00 	sts	0x0080, r1
	OCR3AH=0x00;
    11c4:	10 92 87 00 	sts	0x0087, r1
	OCR3AL=0x00;
    11c8:	10 92 86 00 	sts	0x0086, r1
	OCR3BH=0x00;
    11cc:	10 92 85 00 	sts	0x0085, r1
	OCR3BL=0x00;
    11d0:	10 92 84 00 	sts	0x0084, r1
	OCR3CH=0x00;
    11d4:	10 92 83 00 	sts	0x0083, r1
	OCR3CL=0x00;
    11d8:	10 92 82 00 	sts	0x0082, r1
	// INT3: Off
	// INT4: Off
	// INT5: Off
	// INT6: Off
	// INT7: Off
	EICRA=0x00;
    11dc:	10 92 6a 00 	sts	0x006A, r1
	EICRB=0x00;
    11e0:	1a be       	out	0x3a, r1	; 58
	EIMSK=0x00;
    11e2:	19 be       	out	0x39, r1	; 57

	// Timer(s)/Counter(s) Interrupt(s) initialization
	TIMSK=0x05;
    11e4:	85 e0       	ldi	r24, 0x05	; 5
    11e6:	87 bf       	out	0x37, r24	; 55

	ETIMSK=0x00;
    11e8:	10 92 7d 00 	sts	0x007D, r1

	// USART0 initialization
	// USART0 disabled
	UCSR0B=0x00;
    11ec:	1a b8       	out	0x0a, r1	; 10

	// USART1 initialization
	// USART1 disabled
	UCSR1B=0x00;
    11ee:	10 92 9a 00 	sts	0x009A, r1

	// Analog Comparator initialization
	// Analog Comparator: Off
	// Analog Comparator Input Capture by Timer/Counter 1: Off
	ACSR=0x80;
    11f2:	80 e8       	ldi	r24, 0x80	; 128
    11f4:	88 b9       	out	0x08, r24	; 8
	SFIOR=0x00;
    11f6:	10 bc       	out	0x20, r1	; 32

	// ADC initialization
	// ADC Clock frequency: 250,000 kHz
	// ADC Voltage Reference: Internal 2.56V Voltage Reference with external capacitor at AREF pin
	ADMUX=ADC_VREF_TYPE & 0xff;
    11f8:	80 ec       	ldi	r24, 0xC0	; 192
    11fa:	87 b9       	out	0x07, r24	; 7
	ADCSRA=0x86;
    11fc:	86 e8       	ldi	r24, 0x86	; 134
    11fe:	86 b9       	out	0x06, r24	; 6

	// SPI initialization
	// SPI disabled
	SPCR=0x00;
    1200:	1d b8       	out	0x0d, r1	; 13

	// TWI initialization
	// TWI disabled
	TWCR=0x00;
    1202:	10 92 74 00 	sts	0x0074, r1
    1206:	8f e3       	ldi	r24, 0x3F	; 63
    1208:	9c e9       	ldi	r25, 0x9C	; 156
    120a:	01 97       	sbiw	r24, 0x01	; 1
    120c:	f1 f7       	brne	.-4      	; 0x120a <init_mcu+0x8e>
    120e:	00 c0       	rjmp	.+0      	; 0x1210 <init_mcu+0x94>
    1210:	00 00       	nop
    1212:	08 95       	ret

00001214 <BUT_Init>:
*   Purpose :         /
*                       main`a
****************************************************************************/
void BUT_Init(void)
{
	DDRX_BUTTON &= ~(MASK_BUTTONS);
    1214:	84 b3       	in	r24, 0x14	; 20
    1216:	80 7c       	andi	r24, 0xC0	; 192
    1218:	84 bb       	out	0x14, r24	; 20
	PORT_BUTTON |= MASK_BUTTONS;
    121a:	85 b3       	in	r24, 0x15	; 21
    121c:	8f 63       	ori	r24, 0x3F	; 63
    121e:	85 bb       	out	0x15, r24	; 21
	
	DDRX_BUTTON_2 &= ~(MASK_BUTTONS_2);
    1220:	d1 98       	cbi	0x1a, 1	; 26
	PORT_BUTTON_2 |= MASK_BUTTONS_2;
    1222:	d9 9a       	sbi	0x1b, 1	; 27
    1224:	08 95       	ret

00001226 <BUT_Debrief>:
void BUT_Debrief(void)
{
	unsigned char key;

	//   
	if (BitVal(PIN_BUTTON, speed_1_increment)==0)
    1226:	98 9b       	sbis	0x13, 0	; 19
    1228:	1e c0       	rjmp	.+60     	; 0x1266 <BUT_Debrief+0x40>
	key = KEY_OK;
	else if (BitVal(PIN_BUTTON, speed_1_decrement)==0)
    122a:	99 9b       	sbis	0x13, 1	; 19
    122c:	1e c0       	rjmp	.+60     	; 0x126a <BUT_Debrief+0x44>
	key = KEY_CANCEL;
	else if (BitVal(PIN_BUTTON, OK)==0)
    122e:	9a 9b       	sbis	0x13, 2	; 19
    1230:	1e c0       	rjmp	.+60     	; 0x126e <BUT_Debrief+0x48>
	key = KEY_EXIT;
	else if (BitVal(PIN_BUTTON, speed_2_increment)==0)
    1232:	9b 9b       	sbis	0x13, 3	; 19
    1234:	1e c0       	rjmp	.+60     	; 0x1272 <BUT_Debrief+0x4c>
	key = KEY_RIGHT;
	else if (BitVal(PIN_BUTTON, speed_2_decrement)==0)
    1236:	9c 9b       	sbis	0x13, 4	; 19
    1238:	1e c0       	rjmp	.+60     	; 0x1276 <BUT_Debrief+0x50>
	key = KEY_LEFT;
	else if (BitVal(PIN_BUTTON, length_increment)==0)
    123a:	9d 9b       	sbis	0x13, 5	; 19
    123c:	1e c0       	rjmp	.+60     	; 0x127a <BUT_Debrief+0x54>
	key = KEY_SIX;
	else if (BitVal(PIN_BUTTON_2, length_decrement)==0)
    123e:	c9 9b       	sbis	0x19, 1	; 25
    1240:	1e c0       	rjmp	.+60     	; 0x127e <BUT_Debrief+0x58>
    1242:	0e c0       	rjmp	.+28     	; 0x1260 <BUT_Debrief+0x3a>
		{
			//     
			//      
			if (comp > THRESHOLD2)
			{
				comp = THRESHOLD2 - 40;
    1244:	82 ed       	ldi	r24, 0xD2	; 210
    1246:	80 93 0a 01 	sts	0x010A, r24
				pressedKey = key;
    124a:	90 93 0b 01 	sts	0x010B, r25
				return;
    124e:	08 95       	ret
			}
			else
			{
				comp++;
    1250:	8f 5f       	subi	r24, 0xFF	; 255
    1252:	80 93 0a 01 	sts	0x010A, r24
			};
			//    
			//    
			if (comp == THRESHOLD)
    1256:	84 31       	cpi	r24, 0x14	; 20
    1258:	c1 f4       	brne	.+48     	; 0x128a <BUT_Debrief+0x64>
			{
				pressedKey = key;
    125a:	90 93 0b 01 	sts	0x010B, r25
				return;
    125e:	08 95       	ret
			};
		}
		else
		{
			comp=0;
    1260:	10 92 0a 01 	sts	0x010A, r1
    1264:	08 95       	ret
{
	unsigned char key;

	//   
	if (BitVal(PIN_BUTTON, speed_1_increment)==0)
	key = KEY_OK;
    1266:	91 e0       	ldi	r25, 0x01	; 1
    1268:	0b c0       	rjmp	.+22     	; 0x1280 <BUT_Debrief+0x5a>
	else if (BitVal(PIN_BUTTON, speed_1_decrement)==0)
	key = KEY_CANCEL;
    126a:	92 e0       	ldi	r25, 0x02	; 2
    126c:	09 c0       	rjmp	.+18     	; 0x1280 <BUT_Debrief+0x5a>
	else if (BitVal(PIN_BUTTON, OK)==0)
	key = KEY_EXIT;
    126e:	93 e0       	ldi	r25, 0x03	; 3
    1270:	07 c0       	rjmp	.+14     	; 0x1280 <BUT_Debrief+0x5a>
	else if (BitVal(PIN_BUTTON, speed_2_increment)==0)
	key = KEY_RIGHT;
    1272:	94 e0       	ldi	r25, 0x04	; 4
    1274:	05 c0       	rjmp	.+10     	; 0x1280 <BUT_Debrief+0x5a>
	else if (BitVal(PIN_BUTTON, speed_2_decrement)==0)
	key = KEY_LEFT;
    1276:	95 e0       	ldi	r25, 0x05	; 5
    1278:	03 c0       	rjmp	.+6      	; 0x1280 <BUT_Debrief+0x5a>
	else if (BitVal(PIN_BUTTON, length_increment)==0)
	key = KEY_SIX;
    127a:	96 e0       	ldi	r25, 0x06	; 6
    127c:	01 c0       	rjmp	.+2      	; 0x1280 <BUT_Debrief+0x5a>
	else if (BitVal(PIN_BUTTON_2, length_decrement)==0)
	key = KEY_SEVEN;
    127e:	97 e0       	ldi	r25, 0x07	; 7
		//    - 
		if (key!=0)
		{
			//     
			//      
			if (comp > THRESHOLD2)
    1280:	80 91 0a 01 	lds	r24, 0x010A
    1284:	8b 3f       	cpi	r24, 0xFB	; 251
    1286:	20 f3       	brcs	.-56     	; 0x1250 <BUT_Debrief+0x2a>
    1288:	dd cf       	rjmp	.-70     	; 0x1244 <BUT_Debrief+0x1e>
    128a:	08 95       	ret

0000128c <BUT_GetKey>:
*                      main`e   while
*
****************************************************************************/
unsigned char BUT_GetKey(void)
{
	unsigned char key = pressedKey;
    128c:	80 91 0b 01 	lds	r24, 0x010B
	pressedKey = KEY_NULL;
    1290:	10 92 0b 01 	sts	0x010B, r1
	return key;
};
    1294:	08 95       	ret

00001296 <BUT_SetKey>:
*   Purpose :           
*                        
****************************************************************************/
void BUT_SetKey(unsigned char key)
{
	pressedKey = key;
    1296:	80 93 0b 01 	sts	0x010B, r24
    129a:	08 95       	ret

0000129c <stepper_init>:
void stepper_init(void)
{
	//---------------------------------------------------------------------------------------
	//PORTD=0xFF;
	//DDRD=0xFF;
	PORTD |= (1<<0)|(1<<1)|(1<<4)|(1<<5)|(1<<6)|(1<<7);
    129c:	82 b3       	in	r24, 0x12	; 18
    129e:	83 6f       	ori	r24, 0xF3	; 243
    12a0:	82 bb       	out	0x12, r24	; 18
	DDRD |= (1<<0)|(1<<1)|(1<<4)|(1<<5)|(1<<6)|(1<<7);
    12a2:	81 b3       	in	r24, 0x11	; 17
    12a4:	83 6f       	ori	r24, 0xF3	; 243
    12a6:	81 bb       	out	0x11, r24	; 17
    12a8:	8f e3       	ldi	r24, 0x3F	; 63
    12aa:	9c e9       	ldi	r25, 0x9C	; 156
    12ac:	01 97       	sbiw	r24, 0x01	; 1
    12ae:	f1 f7       	brne	.-4      	; 0x12ac <stepper_init+0x10>
    12b0:	00 c0       	rjmp	.+0      	; 0x12b2 <stepper_init+0x16>
    12b2:	00 00       	nop
	
	
	_delay_ms(10);
	PORTF |= (1<<1)|(1<<2)|(1<<3);
    12b4:	e2 e6       	ldi	r30, 0x62	; 98
    12b6:	f0 e0       	ldi	r31, 0x00	; 0
    12b8:	80 81       	ld	r24, Z
    12ba:	8e 60       	ori	r24, 0x0E	; 14
    12bc:	80 83       	st	Z, r24
	DDRF |= (1<<1)|(1<<2)|(1<<3);
    12be:	a1 e6       	ldi	r26, 0x61	; 97
    12c0:	b0 e0       	ldi	r27, 0x00	; 0
    12c2:	8c 91       	ld	r24, X
    12c4:	8e 60       	ori	r24, 0x0E	; 14
    12c6:	8c 93       	st	X, r24
    12c8:	8f e3       	ldi	r24, 0x3F	; 63
    12ca:	9c e9       	ldi	r25, 0x9C	; 156
    12cc:	01 97       	sbiw	r24, 0x01	; 1
    12ce:	f1 f7       	brne	.-4      	; 0x12cc <stepper_init+0x30>
    12d0:	00 c0       	rjmp	.+0      	; 0x12d2 <stepper_init+0x36>
    12d2:	00 00       	nop
	//PORTF=0x0E;
	//DDRF=0x0E;
	//---------------------------------------------------------------------------------------
	_delay_ms(10);
	//---------------------------------------------------------------------------------------
	_MOWER_EN
    12d4:	80 81       	ld	r24, Z
    12d6:	84 60       	ori	r24, 0x04	; 4
    12d8:	80 83       	st	Z, r24
    12da:	8f e3       	ldi	r24, 0x3F	; 63
    12dc:	9c e9       	ldi	r25, 0x9C	; 156
    12de:	01 97       	sbiw	r24, 0x01	; 1
    12e0:	f1 f7       	brne	.-4      	; 0x12de <stepper_init+0x42>
    12e2:	00 c0       	rjmp	.+0      	; 0x12e4 <stepper_init+0x48>
    12e4:	00 00       	nop
	_delay_ms(10);
	_MOWER_ON
    12e6:	80 81       	ld	r24, Z
    12e8:	88 60       	ori	r24, 0x08	; 8
    12ea:	80 83       	st	Z, r24
	//---------------------------------------------------------------------------------------
	DIR_DOWN
    12ec:	91 98       	cbi	0x12, 1	; 18
	DIR_RIGHT
    12ee:	90 98       	cbi	0x12, 0	; 18
    12f0:	08 95       	ret

000012f2 <start_work>:
{
	//---------------------------------------------------------------------------------------
// 	time_1=32000/time_1;
// 	time_2=32000/time_2;
	//---------------------------------------------------------------------------------------
	_MOWER_S
    12f2:	e2 e6       	ldi	r30, 0x62	; 98
    12f4:	f0 e0       	ldi	r31, 0x00	; 0
    12f6:	20 81       	ld	r18, Z
    12f8:	22 60       	ori	r18, 0x02	; 2
    12fa:	20 83       	st	Z, r18
    12fc:	ef e3       	ldi	r30, 0x3F	; 63
    12fe:	ff e1       	ldi	r31, 0x1F	; 31
    1300:	31 97       	sbiw	r30, 0x01	; 1
    1302:	f1 f7       	brne	.-4      	; 0x1300 <start_work+0xe>
    1304:	00 c0       	rjmp	.+0      	; 0x1306 <start_work+0x14>
    1306:	00 00       	nop
	_delay_ms(2);
	CLR_CS_1;
    1308:	94 98       	cbi	0x12, 4	; 18
	#else
		//round up by default
		__ticks_dc = (uint32_t)(ceil(fabs(__tmp)));
	#endif

	__builtin_avr_delay_cycles(__ticks_dc);
    130a:	f5 e3       	ldi	r31, 0x35	; 53
    130c:	fa 95       	dec	r31
    130e:	f1 f7       	brne	.-4      	; 0x130c <start_work+0x1a>
    1310:	00 00       	nop
    1312:	2f e0       	ldi	r18, 0x0F	; 15
    1314:	30 e0       	ldi	r19, 0x00	; 0
	_delay_us(10);
	//---------------------------------------------------------------------------------------
	for (unsigned char i=17;i>1;i--)
	{
		
		if ((((time_1)>>(i-2))&1))
    1316:	ac 01       	movw	r20, r24
    1318:	02 2e       	mov	r0, r18
    131a:	02 c0       	rjmp	.+4      	; 0x1320 <start_work+0x2e>
    131c:	56 95       	lsr	r21
    131e:	47 95       	ror	r20
    1320:	0a 94       	dec	r0
    1322:	e2 f7       	brpl	.-8      	; 0x131c <start_work+0x2a>
    1324:	40 ff       	sbrs	r20, 0
    1326:	02 c0       	rjmp	.+4      	; 0x132c <start_work+0x3a>
		{
			SET_DATA
    1328:	97 9a       	sbi	0x12, 7	; 18
    132a:	01 c0       	rjmp	.+2      	; 0x132e <start_work+0x3c>
		}
		else
		{
			CLR_DATA
    132c:	97 98       	cbi	0x12, 7	; 18
    132e:	e7 ec       	ldi	r30, 0xC7	; 199
    1330:	f0 e0       	ldi	r31, 0x00	; 0
    1332:	31 97       	sbiw	r30, 0x01	; 1
    1334:	f1 f7       	brne	.-4      	; 0x1332 <start_work+0x40>
    1336:	00 c0       	rjmp	.+0      	; 0x1338 <start_work+0x46>
    1338:	00 00       	nop
		};
		_delay_us(50);
		CLR_CLK
    133a:	96 98       	cbi	0x12, 6	; 18
    133c:	e7 ec       	ldi	r30, 0xC7	; 199
    133e:	f0 e0       	ldi	r31, 0x00	; 0
    1340:	31 97       	sbiw	r30, 0x01	; 1
    1342:	f1 f7       	brne	.-4      	; 0x1340 <start_work+0x4e>
    1344:	00 c0       	rjmp	.+0      	; 0x1346 <start_work+0x54>
    1346:	00 00       	nop
		_delay_us(50);
		SET_CLK
    1348:	96 9a       	sbi	0x12, 6	; 18
    134a:	21 50       	subi	r18, 0x01	; 1
    134c:	31 09       	sbc	r19, r1
    134e:	18 f7       	brcc	.-58     	; 0x1316 <start_work+0x24>
    1350:	25 e3       	ldi	r18, 0x35	; 53
    1352:	2a 95       	dec	r18
    1354:	f1 f7       	brne	.-4      	; 0x1352 <start_work+0x60>
    1356:	00 00       	nop
	};
	//---------------------------------------------------------------------------------------
	_delay_us(10);
	SET_CS_1;
    1358:	94 9a       	sbi	0x12, 4	; 18
    135a:	45 e3       	ldi	r20, 0x35	; 53
    135c:	4a 95       	dec	r20
    135e:	f1 f7       	brne	.-4      	; 0x135c <start_work+0x6a>
    1360:	00 00       	nop
    1362:	8a e6       	ldi	r24, 0x6A	; 106
    1364:	8a 95       	dec	r24
    1366:	f1 f7       	brne	.-4      	; 0x1364 <start_work+0x72>
    1368:	00 c0       	rjmp	.+0      	; 0x136a <start_work+0x78>
	_delay_us(10);
	//---------------------------------------------------------------------------------------
	_delay_us(20);
	//---------------------------------------------------------------------------------------
	CLR_CS_2;
    136a:	95 98       	cbi	0x12, 5	; 18
    136c:	e5 e3       	ldi	r30, 0x35	; 53
    136e:	ea 95       	dec	r30
    1370:	f1 f7       	brne	.-4      	; 0x136e <start_work+0x7c>
    1372:	00 00       	nop
    1374:	8f e0       	ldi	r24, 0x0F	; 15
    1376:	90 e0       	ldi	r25, 0x00	; 0
	_delay_us(10);
	//---------------------------------------------------------------------------------------
	for (unsigned char i=17;i>1;i--)
	{
		
		if ((((time_2)>>(i-2))&1))
    1378:	9b 01       	movw	r18, r22
    137a:	08 2e       	mov	r0, r24
    137c:	02 c0       	rjmp	.+4      	; 0x1382 <start_work+0x90>
    137e:	36 95       	lsr	r19
    1380:	27 95       	ror	r18
    1382:	0a 94       	dec	r0
    1384:	e2 f7       	brpl	.-8      	; 0x137e <start_work+0x8c>
    1386:	20 ff       	sbrs	r18, 0
    1388:	02 c0       	rjmp	.+4      	; 0x138e <start_work+0x9c>
		{
			SET_DATA
    138a:	97 9a       	sbi	0x12, 7	; 18
    138c:	01 c0       	rjmp	.+2      	; 0x1390 <start_work+0x9e>
		}
		else
		{
			CLR_DATA
    138e:	97 98       	cbi	0x12, 7	; 18
    1390:	e7 ec       	ldi	r30, 0xC7	; 199
    1392:	f0 e0       	ldi	r31, 0x00	; 0
    1394:	31 97       	sbiw	r30, 0x01	; 1
    1396:	f1 f7       	brne	.-4      	; 0x1394 <start_work+0xa2>
    1398:	00 c0       	rjmp	.+0      	; 0x139a <start_work+0xa8>
    139a:	00 00       	nop
		};
		_delay_us(50);
		CLR_CLK
    139c:	96 98       	cbi	0x12, 6	; 18
    139e:	e7 ec       	ldi	r30, 0xC7	; 199
    13a0:	f0 e0       	ldi	r31, 0x00	; 0
    13a2:	31 97       	sbiw	r30, 0x01	; 1
    13a4:	f1 f7       	brne	.-4      	; 0x13a2 <start_work+0xb0>
    13a6:	00 c0       	rjmp	.+0      	; 0x13a8 <start_work+0xb6>
    13a8:	00 00       	nop
		_delay_us(50);
		SET_CLK
    13aa:	96 9a       	sbi	0x12, 6	; 18
    13ac:	01 97       	sbiw	r24, 0x01	; 1
    13ae:	20 f7       	brcc	.-56     	; 0x1378 <start_work+0x86>
    13b0:	25 e3       	ldi	r18, 0x35	; 53
    13b2:	2a 95       	dec	r18
    13b4:	f1 f7       	brne	.-4      	; 0x13b2 <start_work+0xc0>
    13b6:	00 00       	nop
	};
	//---------------------------------------------------------------------------------------
	_delay_us(10);
	SET_CS_2;
    13b8:	95 9a       	sbi	0x12, 5	; 18
    13ba:	45 e3       	ldi	r20, 0x35	; 53
    13bc:	4a 95       	dec	r20
    13be:	f1 f7       	brne	.-4      	; 0x13bc <start_work+0xca>
    13c0:	00 00       	nop
	_delay_us(10);
	_MOWER_W
    13c2:	e2 e6       	ldi	r30, 0x62	; 98
    13c4:	f0 e0       	ldi	r31, 0x00	; 0
    13c6:	80 81       	ld	r24, Z
    13c8:	8d 7f       	andi	r24, 0xFD	; 253
    13ca:	80 83       	st	Z, r24
    13cc:	8b e0       	ldi	r24, 0x0B	; 11
    13ce:	8d bd       	out	0x2d, r24	; 45
    13d0:	8c ed       	ldi	r24, 0xDC	; 220
    13d2:	8c bd       	out	0x2c, r24	; 44
    13d4:	08 95       	ret

000013d6 <stop_work>:
// 
//****************************************************************************************
void stop_work(void)
{
	//---------------------------------------------------------------------------------------
	_MOWER_S
    13d6:	e2 e6       	ldi	r30, 0x62	; 98
    13d8:	f0 e0       	ldi	r31, 0x00	; 0
    13da:	80 81       	ld	r24, Z
    13dc:	82 60       	ori	r24, 0x02	; 2
    13de:	80 83       	st	Z, r24
    13e0:	08 95       	ret

000013e2 <beep_tone>:
*   Purpose :       
****************************************************************************/
void beep_tone(unsigned int i)
{
	//---------------------------------------------------------------------------------------
	BUZZ_ON
    13e2:	e5 e6       	ldi	r30, 0x65	; 101
    13e4:	f0 e0       	ldi	r31, 0x00	; 0
    13e6:	20 81       	ld	r18, Z
    13e8:	20 61       	ori	r18, 0x10	; 16
    13ea:	20 83       	st	Z, r18
	for (;1<i;i--)
    13ec:	82 30       	cpi	r24, 0x02	; 2
    13ee:	91 05       	cpc	r25, r1
    13f0:	50 f0       	brcs	.+20     	; 0x1406 <beep_tone+0x24>
	#else
		//round up by default
		__ticks_dc = (uint32_t)(ceil(fabs(__tmp)));
	#endif

	__builtin_avr_delay_cycles(__ticks_dc);
    13f2:	ef e9       	ldi	r30, 0x9F	; 159
    13f4:	ff e0       	ldi	r31, 0x0F	; 15
    13f6:	31 97       	sbiw	r30, 0x01	; 1
    13f8:	f1 f7       	brne	.-4      	; 0x13f6 <beep_tone+0x14>
    13fa:	00 c0       	rjmp	.+0      	; 0x13fc <beep_tone+0x1a>
    13fc:	00 00       	nop
    13fe:	01 97       	sbiw	r24, 0x01	; 1
    1400:	81 30       	cpi	r24, 0x01	; 1
    1402:	91 05       	cpc	r25, r1
    1404:	b1 f7       	brne	.-20     	; 0x13f2 <beep_tone+0x10>
	{
		_delay_ms(1);
	};
	BUZZ_OFF
    1406:	e5 e6       	ldi	r30, 0x65	; 101
    1408:	f0 e0       	ldi	r31, 0x00	; 0
    140a:	80 81       	ld	r24, Z
    140c:	8f 7e       	andi	r24, 0xEF	; 239
    140e:	80 83       	st	Z, r24
    1410:	08 95       	ret

00001412 <all_ok>:
*   Purpose :             
****************************************************************************/
void all_ok(unsigned char err)
{
	//---------------------------------------------------------------------------------------
	switch(err)
    1412:	88 23       	and	r24, r24
    1414:	19 f0       	breq	.+6      	; 0x141c <all_ok+0xa>
    1416:	80 31       	cpi	r24, 0x10	; 16
    1418:	41 f4       	brne	.+16     	; 0x142a <all_ok+0x18>
    141a:	04 c0       	rjmp	.+8      	; 0x1424 <all_ok+0x12>
	{
		case 0:
		{
			//---------------------------------------------------------------------------------------
			ClrBit(PORTA,LED_OK);
    141c:	d8 98       	cbi	0x1b, 0	; 27
			ClrBit(PORTA,LED_busy);
    141e:	d9 98       	cbi	0x1b, 1	; 27
			ClrBit(PORTA,LED_ERR);
    1420:	da 98       	cbi	0x1b, 2	; 27
			//---------------------------------------------------------------------------------------
		};break;
    1422:	08 95       	ret
		//---------------------------------------------------------------------------------------
		case 16:
		{
			//---------------------------------------------------------------------------------------
			SetBit(PORTA,LED_OK);
    1424:	d8 9a       	sbi	0x1b, 0	; 27
			SetBit(PORTA,LED_busy);
    1426:	d9 9a       	sbi	0x1b, 1	; 27
			SetBit(PORTA,LED_ERR);
    1428:	da 9a       	sbi	0x1b, 2	; 27
    142a:	08 95       	ret

0000142c <Func_reset>:
//---------------------------------------------------------------------------------------
void Func_reset(void)
{
	// Watchdog Timer initialization
	// Watchdog Timer Prescaler: OSC/16k
	WDTCR=0x08;
    142c:	88 e0       	ldi	r24, 0x08	; 8
    142e:	81 bd       	out	0x21, r24	; 33
    1430:	ff cf       	rjmp	.-2      	; 0x1430 <Func_reset+0x4>

00001432 <__vector_16>:

//****************************************************************************************
// Timer0 overflow interrupt service routine
//****************************************************************************************
ISR (TIMER0_OVF_vect)
{
    1432:	1f 92       	push	r1
    1434:	0f 92       	push	r0
    1436:	0f b6       	in	r0, 0x3f	; 63
    1438:	0f 92       	push	r0
    143a:	11 24       	eor	r1, r1
    143c:	0b b6       	in	r0, 0x3b	; 59
    143e:	0f 92       	push	r0
    1440:	2f 93       	push	r18
    1442:	3f 93       	push	r19
    1444:	4f 93       	push	r20
    1446:	5f 93       	push	r21
    1448:	6f 93       	push	r22
    144a:	7f 93       	push	r23
    144c:	8f 93       	push	r24
    144e:	9f 93       	push	r25
    1450:	af 93       	push	r26
    1452:	bf 93       	push	r27
    1454:	ef 93       	push	r30
    1456:	ff 93       	push	r31
	//---------------------------------------------------------------------------------------
	BUT_Debrief();
    1458:	e6 de       	rcall	.-564    	; 0x1226 <BUT_Debrief>
	//---------------------------------------------------------------------------------------
	return;
};
    145a:	ff 91       	pop	r31
    145c:	ef 91       	pop	r30
    145e:	bf 91       	pop	r27
    1460:	af 91       	pop	r26
    1462:	9f 91       	pop	r25
    1464:	8f 91       	pop	r24
    1466:	7f 91       	pop	r23
    1468:	6f 91       	pop	r22
    146a:	5f 91       	pop	r21
    146c:	4f 91       	pop	r20
    146e:	3f 91       	pop	r19
    1470:	2f 91       	pop	r18
    1472:	0f 90       	pop	r0
    1474:	0b be       	out	0x3b, r0	; 59
    1476:	0f 90       	pop	r0
    1478:	0f be       	out	0x3f, r0	; 63
    147a:	0f 90       	pop	r0
    147c:	1f 90       	pop	r1
    147e:	18 95       	reti

00001480 <__vector_14>:
//****************************************************************************************
// Timer1 overflow interrupt service routine
//****************************************************************************************
ISR (TIMER1_OVF_vect)
{
    1480:	1f 92       	push	r1
    1482:	0f 92       	push	r0
    1484:	0f b6       	in	r0, 0x3f	; 63
    1486:	0f 92       	push	r0
    1488:	11 24       	eor	r1, r1
    148a:	0b b6       	in	r0, 0x3b	; 59
    148c:	0f 92       	push	r0
    148e:	2f 93       	push	r18
    1490:	3f 93       	push	r19
    1492:	4f 93       	push	r20
    1494:	5f 93       	push	r21
    1496:	6f 93       	push	r22
    1498:	7f 93       	push	r23
    149a:	8f 93       	push	r24
    149c:	9f 93       	push	r25
    149e:	af 93       	push	r26
    14a0:	bf 93       	push	r27
    14a2:	ef 93       	push	r30
    14a4:	ff 93       	push	r31
	//---------------------------------------------------------------------------------------
	// Reinitialize Timer1 value
	TCNT1H=0x0B;
    14a6:	8b e0       	ldi	r24, 0x0B	; 11
    14a8:	8d bd       	out	0x2d, r24	; 45
	TCNT1L=0xDC;
    14aa:	8c ed       	ldi	r24, 0xDC	; 220
    14ac:	8c bd       	out	0x2c, r24	; 44
	//---------------------------------------------------------------------------------------
	if (cnt>1)
    14ae:	80 91 08 01 	lds	r24, 0x0108
    14b2:	90 91 09 01 	lds	r25, 0x0109
    14b6:	82 30       	cpi	r24, 0x02	; 2
    14b8:	91 05       	cpc	r25, r1
    14ba:	30 f0       	brcs	.+12     	; 0x14c8 <__vector_14+0x48>
	{
		//---------------------------------------------------------------------------------------
		cnt--;
    14bc:	01 97       	sbiw	r24, 0x01	; 1
    14be:	90 93 09 01 	sts	0x0109, r25
    14c2:	80 93 08 01 	sts	0x0108, r24
    14c6:	01 c0       	rjmp	.+2      	; 0x14ca <__vector_14+0x4a>
		//---------------------------------------------------------------------------------------
	} 
	else
	{
		//---------------------------------------------------------------------------------------
		stop_work();
    14c8:	86 df       	rcall	.-244    	; 0x13d6 <stop_work>
		//---------------------------------------------------------------------------------------
	};
	//---------------------------------------------------------------------------------------
	return;
};
    14ca:	ff 91       	pop	r31
    14cc:	ef 91       	pop	r30
    14ce:	bf 91       	pop	r27
    14d0:	af 91       	pop	r26
    14d2:	9f 91       	pop	r25
    14d4:	8f 91       	pop	r24
    14d6:	7f 91       	pop	r23
    14d8:	6f 91       	pop	r22
    14da:	5f 91       	pop	r21
    14dc:	4f 91       	pop	r20
    14de:	3f 91       	pop	r19
    14e0:	2f 91       	pop	r18
    14e2:	0f 90       	pop	r0
    14e4:	0b be       	out	0x3b, r0	; 59
    14e6:	0f 90       	pop	r0
    14e8:	0f be       	out	0x3f, r0	; 63
    14ea:	0f 90       	pop	r0
    14ec:	1f 90       	pop	r1
    14ee:	18 95       	reti

000014f0 <main>:
	//---------------------------------------------------------------------------------------
	unsigned char button = 0x00, menu_item_father = 0x00, menu_item_child = 0x01;
	unsigned int work_time = 1, time_1 = 4, time_2 = 8;
	//float temp = speed_2;
	//---------------------------------------------------------------------------------------
	init_mcu();
    14f0:	45 de       	rcall	.-886    	; 0x117c <init_mcu>
	BUT_Init();
    14f2:	90 de       	rcall	.-736    	; 0x1214 <BUT_Init>
	BUZZ_LD_INIT
    14f4:	a4 e6       	ldi	r26, 0x64	; 100
    14f6:	b0 e0       	ldi	r27, 0x00	; 0
    14f8:	8c 91       	ld	r24, X
    14fa:	80 61       	ori	r24, 0x10	; 16
    14fc:	8c 93       	st	X, r24
    14fe:	e5 e6       	ldi	r30, 0x65	; 101
    1500:	f0 e0       	ldi	r31, 0x00	; 0
    1502:	80 81       	ld	r24, Z
    1504:	8f 7e       	andi	r24, 0xEF	; 239
    1506:	80 83       	st	Z, r24
    1508:	8c 91       	ld	r24, X
    150a:	81 60       	ori	r24, 0x01	; 1
    150c:	8c 93       	st	X, r24
    150e:	80 81       	ld	r24, Z
    1510:	8e 7f       	andi	r24, 0xFE	; 254
    1512:	80 83       	st	Z, r24
    1514:	8c 91       	ld	r24, X
    1516:	82 60       	ori	r24, 0x02	; 2
    1518:	8c 93       	st	X, r24
    151a:	80 81       	ld	r24, Z
    151c:	8d 7f       	andi	r24, 0xFD	; 253
    151e:	80 83       	st	Z, r24
    1520:	8c 91       	ld	r24, X
    1522:	84 60       	ori	r24, 0x04	; 4
    1524:	8c 93       	st	X, r24
    1526:	80 81       	ld	r24, Z
    1528:	8b 7f       	andi	r24, 0xFB	; 251
    152a:	80 83       	st	Z, r24
	stepper_init();
    152c:	b7 de       	rcall	.-658    	; 0x129c <stepper_init>
	//---------------------------------------------------------------------------------------
	all_ok(16);
    152e:	80 e1       	ldi	r24, 0x10	; 16
    1530:	70 df       	rcall	.-288    	; 0x1412 <all_ok>
	//---------------------------------------------------------------------------------------
	init_LCD();
    1532:	02 dd       	rcall	.-1532   	; 0xf38 <init_LCD>
	uart_1_init();
    1534:	26 d5       	rcall	.+2636   	; 0x1f82 <uart_1_init>
	//Global enable interrupts
	sei();
    1536:	78 94       	sei
	//---------------------------------------------------------------------------------------
	Main_menu (menu_item_father,menu_item_child,work_time,time_1,time_2);
    1538:	08 e0       	ldi	r16, 0x08	; 8
    153a:	10 e0       	ldi	r17, 0x00	; 0
    153c:	24 e0       	ldi	r18, 0x04	; 4
    153e:	30 e0       	ldi	r19, 0x00	; 0
    1540:	41 e0       	ldi	r20, 0x01	; 1
    1542:	50 e0       	ldi	r21, 0x00	; 0
    1544:	61 e0       	ldi	r22, 0x01	; 1
    1546:	80 e0       	ldi	r24, 0x00	; 0
    1548:	4e d1       	rcall	.+668    	; 0x17e6 <Main_menu>
	//---------------------------------------------------------------------------------------
	uart_1_write(0xAA);
    154a:	8a ea       	ldi	r24, 0xAA	; 170
    154c:	05 d5       	rcall	.+2570   	; 0x1f58 <uart_1_write>
	uart_1_write(0xFF);
    154e:	8f ef       	ldi	r24, 0xFF	; 255
    1550:	03 d5       	rcall	.+2566   	; 0x1f58 <uart_1_write>
	//---------------------------------------------------------------------------------------
	all_ok(0);
    1552:	80 e0       	ldi	r24, 0x00	; 0
    1554:	5e df       	rcall	.-324    	; 0x1412 <all_ok>
	//---------------------------------------------------------------------------------------
	start_work(time_1,time_2);
    1556:	68 e0       	ldi	r22, 0x08	; 8
    1558:	70 e0       	ldi	r23, 0x00	; 0
    155a:	84 e0       	ldi	r24, 0x04	; 4
    155c:	90 e0       	ldi	r25, 0x00	; 0
    155e:	c9 de       	rcall	.-622    	; 0x12f2 <start_work>
	cnt=work_time;
    1560:	81 e0       	ldi	r24, 0x01	; 1
    1562:	90 e0       	ldi	r25, 0x00	; 0
    1564:	90 93 09 01 	sts	0x0109, r25
    1568:	80 93 08 01 	sts	0x0108, r24

int main(void)
{
	//---------------------------------------------------------------------------------------
	unsigned char button = 0x00, menu_item_father = 0x00, menu_item_child = 0x01;
	unsigned int work_time = 1, time_1 = 4, time_2 = 8;
    156c:	68 94       	set
    156e:	ee 24       	eor	r14, r14
    1570:	e3 f8       	bld	r14, 3
    1572:	f1 2c       	mov	r15, r1
    1574:	68 94       	set
    1576:	66 24       	eor	r6, r6
    1578:	62 f8       	bld	r6, 2
    157a:	71 2c       	mov	r7, r1
    157c:	cc 24       	eor	r12, r12
    157e:	c3 94       	inc	r12
    1580:	d1 2c       	mov	r13, r1
};

int main(void)
{
	//---------------------------------------------------------------------------------------
	unsigned char button = 0x00, menu_item_father = 0x00, menu_item_child = 0x01;
    1582:	d1 e0       	ldi	r29, 0x01	; 1
    1584:	c0 e0       	ldi	r28, 0x00	; 0
						time_2++;
						beep_tone(5);
						if (time_2>999)
						{
							beep_tone(50);
							time_2=999;
    1586:	0f 2e       	mov	r0, r31
    1588:	f7 ee       	ldi	r31, 0xE7	; 231
    158a:	8f 2e       	mov	r8, r31
    158c:	f3 e0       	ldi	r31, 0x03	; 3
    158e:	9f 2e       	mov	r9, r31
    1590:	f0 2d       	mov	r31, r0
						time_2--;
						beep_tone(5);
						if (time_2>999)
						{
							beep_tone(50);
							time_2=0;
    1592:	a1 2c       	mov	r10, r1
    1594:	b1 2c       	mov	r11, r1
    1596:	0f 2e       	mov	r0, r31
    1598:	f9 ef       	ldi	r31, 0xF9	; 249
    159a:	5f 2e       	mov	r5, r31
    159c:	f0 2d       	mov	r31, r0
						menu_item_child++;
						beep_tone(5);
						if (menu_item_child>9)
						{
							beep_tone(50);
							menu_item_child=9;
    159e:	0f 2e       	mov	r0, r31
    15a0:	f9 e0       	ldi	r31, 0x09	; 9
    15a2:	4f 2e       	mov	r4, r31
    15a4:	f0 2d       	mov	r31, r0
    while(1)
    {
		//---------------------------------------------------------------------------------------
        //TODO:: Please write your application code 
		//---------------------------------------------------------------------------------------
		if (uart_1_rx_count())
    15a6:	bf d4       	rcall	.+2430   	; 0x1f26 <uart_1_rx_count>
    15a8:	88 23       	and	r24, r24
    15aa:	21 f0       	breq	.+8      	; 0x15b4 <main+0xc4>
		{
			if (uart_1_read()==0x55)
    15ac:	c3 d4       	rcall	.+2438   	; 0x1f34 <uart_1_read>
    15ae:	85 35       	cpi	r24, 0x55	; 85
    15b0:	09 f4       	brne	.+2      	; 0x15b4 <main+0xc4>
			{
				Func_reset();
    15b2:	3c df       	rcall	.-392    	; 0x142c <Func_reset>
			};
		}else
		{
		};
		//---------------------------------------------------------------------------------------
		button=BUT_GetKey();
    15b4:	6b de       	rcall	.-810    	; 0x128c <BUT_GetKey>
		//---------------------------------------------------------------------------------------
		switch (menu_item_father)
    15b6:	c1 30       	cpi	r28, 0x01	; 1
    15b8:	b1 f1       	breq	.+108    	; 0x1626 <main+0x136>
    15ba:	20 f0       	brcs	.+8      	; 0x15c4 <main+0xd4>
    15bc:	c2 30       	cpi	r28, 0x02	; 2
    15be:	09 f0       	breq	.+2      	; 0x15c2 <main+0xd2>
    15c0:	e5 c0       	rjmp	.+458    	; 0x178c <main+0x29c>
    15c2:	d8 c0       	rjmp	.+432    	; 0x1774 <main+0x284>
			//---------------------------------------------------------------------------------------
			case 0x00 :
			{
				//---------------------------------------------------------------------------------------
				//---------------------------------------------------------------------------------------
				switch (button)
    15c4:	82 30       	cpi	r24, 0x02	; 2
    15c6:	b1 f0       	breq	.+44     	; 0x15f4 <main+0x104>
    15c8:	83 30       	cpi	r24, 0x03	; 3
    15ca:	29 f1       	breq	.+74     	; 0x1616 <main+0x126>
    15cc:	81 30       	cpi	r24, 0x01	; 1
    15ce:	09 f0       	breq	.+2      	; 0x15d2 <main+0xe2>
    15d0:	dd c0       	rjmp	.+442    	; 0x178c <main+0x29c>
				{
					//---------------------------------------------------------------------------------------
					case 0x01 :
					{
						//---------------------------------------------------------------------------------------
						menu_item_child++;
    15d2:	df 5f       	subi	r29, 0xFF	; 255
						beep_tone(5);
    15d4:	85 e0       	ldi	r24, 0x05	; 5
    15d6:	90 e0       	ldi	r25, 0x00	; 0
    15d8:	04 df       	rcall	.-504    	; 0x13e2 <beep_tone>
						if (menu_item_child>9)
    15da:	da 30       	cpi	r29, 0x0A	; 10
    15dc:	20 f0       	brcs	.+8      	; 0x15e6 <main+0xf6>
						{
							beep_tone(50);
    15de:	82 e3       	ldi	r24, 0x32	; 50
    15e0:	90 e0       	ldi	r25, 0x00	; 0
    15e2:	ff de       	rcall	.-514    	; 0x13e2 <beep_tone>
							menu_item_child=9;
    15e4:	d4 2d       	mov	r29, r4
						};
						Main_menu (menu_item_father,menu_item_child,work_time,time_1,time_2);
    15e6:	87 01       	movw	r16, r14
    15e8:	93 01       	movw	r18, r6
    15ea:	a6 01       	movw	r20, r12
    15ec:	6d 2f       	mov	r22, r29
    15ee:	80 e0       	ldi	r24, 0x00	; 0
    15f0:	fa d0       	rcall	.+500    	; 0x17e6 <Main_menu>
						//---------------------------------------------------------------------------------------
					};
					break;
    15f2:	cc c0       	rjmp	.+408    	; 0x178c <main+0x29c>
					//---------------------------------------------------------------------------------------
					case 0x02 :
					{
						//---------------------------------------------------------------------------------------
						menu_item_child--;
    15f4:	d1 50       	subi	r29, 0x01	; 1
						beep_tone(5);
    15f6:	85 e0       	ldi	r24, 0x05	; 5
    15f8:	90 e0       	ldi	r25, 0x00	; 0
    15fa:	f3 de       	rcall	.-538    	; 0x13e2 <beep_tone>
						if (menu_item_child>9)
    15fc:	da 30       	cpi	r29, 0x0A	; 10
    15fe:	20 f0       	brcs	.+8      	; 0x1608 <main+0x118>
						{
							beep_tone(50);
    1600:	82 e3       	ldi	r24, 0x32	; 50
    1602:	90 e0       	ldi	r25, 0x00	; 0
    1604:	ee de       	rcall	.-548    	; 0x13e2 <beep_tone>
							menu_item_child=1;
    1606:	d1 e0       	ldi	r29, 0x01	; 1
						};
						Main_menu (menu_item_father,menu_item_child,work_time,time_1,time_2);
    1608:	87 01       	movw	r16, r14
    160a:	93 01       	movw	r18, r6
    160c:	a6 01       	movw	r20, r12
    160e:	6d 2f       	mov	r22, r29
    1610:	80 e0       	ldi	r24, 0x00	; 0
    1612:	e9 d0       	rcall	.+466    	; 0x17e6 <Main_menu>
						//---------------------------------------------------------------------------------------
					};
					break;
    1614:	bb c0       	rjmp	.+374    	; 0x178c <main+0x29c>
					//---------------------------------------------------------------------------------------
					case 0x03 :
					{
						//---------------------------------------------------------------------------------------
						menu_item_father=0x01;
						Main_menu (menu_item_father,menu_item_child,work_time,time_1,time_2);
    1616:	87 01       	movw	r16, r14
    1618:	93 01       	movw	r18, r6
    161a:	a6 01       	movw	r20, r12
    161c:	6d 2f       	mov	r22, r29
    161e:	81 e0       	ldi	r24, 0x01	; 1
    1620:	e2 d0       	rcall	.+452    	; 0x17e6 <Main_menu>
					break;
					//---------------------------------------------------------------------------------------
					case 0x03 :
					{
						//---------------------------------------------------------------------------------------
						menu_item_father=0x01;
    1622:	c1 e0       	ldi	r28, 0x01	; 1
						Main_menu (menu_item_father,menu_item_child,work_time,time_1,time_2);
						//---------------------------------------------------------------------------------------
					};
					break;
    1624:	b3 c0       	rjmp	.+358    	; 0x178c <main+0x29c>
			//---------------------------------------------------------------------------------------
			case 0x01 :
			{
				//---------------------------------------------------------------------------------------
				//---------------------------------------------------------------------------------------
				switch (button)
    1626:	84 30       	cpi	r24, 0x04	; 4
    1628:	09 f4       	brne	.+2      	; 0x162c <main+0x13c>
    162a:	4c c0       	rjmp	.+152    	; 0x16c4 <main+0x1d4>
    162c:	38 f4       	brcc	.+14     	; 0x163c <main+0x14c>
    162e:	82 30       	cpi	r24, 0x02	; 2
    1630:	39 f1       	breq	.+78     	; 0x1680 <main+0x190>
    1632:	68 f4       	brcc	.+26     	; 0x164e <main+0x15e>
    1634:	81 30       	cpi	r24, 0x01	; 1
    1636:	09 f0       	breq	.+2      	; 0x163a <main+0x14a>
    1638:	a9 c0       	rjmp	.+338    	; 0x178c <main+0x29c>
    163a:	0c c0       	rjmp	.+24     	; 0x1654 <main+0x164>
    163c:	86 30       	cpi	r24, 0x06	; 6
    163e:	09 f4       	brne	.+2      	; 0x1642 <main+0x152>
    1640:	6d c0       	rjmp	.+218    	; 0x171c <main+0x22c>
    1642:	08 f4       	brcc	.+2      	; 0x1646 <main+0x156>
    1644:	55 c0       	rjmp	.+170    	; 0x16f0 <main+0x200>
    1646:	87 30       	cpi	r24, 0x07	; 7
    1648:	09 f0       	breq	.+2      	; 0x164c <main+0x15c>
    164a:	a0 c0       	rjmp	.+320    	; 0x178c <main+0x29c>
    164c:	7d c0       	rjmp	.+250    	; 0x1748 <main+0x258>
					//---------------------------------------------------------------------------------------
					case 0x03 :
					{
						//---------------------------------------------------------------------------------------
						unsigned char cnt=0x00;
						while((cnt<250)&&(BitVal(PIN_BUTTON, OK)==0))
    164e:	9a 9b       	sbis	0x13, 2	; 19
    1650:	c2 c0       	rjmp	.+388    	; 0x17d6 <main+0x2e6>
    1652:	a6 c0       	rjmp	.+332    	; 0x17a0 <main+0x2b0>
				{
					//---------------------------------------------------------------------------------------
					case 0x01 :
					{
						//---------------------------------------------------------------------------------------
						time_1++;
    1654:	2f ef       	ldi	r18, 0xFF	; 255
    1656:	62 1a       	sub	r6, r18
    1658:	72 0a       	sbc	r7, r18
						beep_tone(5);
    165a:	85 e0       	ldi	r24, 0x05	; 5
    165c:	90 e0       	ldi	r25, 0x00	; 0
    165e:	c1 de       	rcall	.-638    	; 0x13e2 <beep_tone>
						if (time_1>999)
    1660:	88 ee       	ldi	r24, 0xE8	; 232
    1662:	68 16       	cp	r6, r24
    1664:	83 e0       	ldi	r24, 0x03	; 3
    1666:	78 06       	cpc	r7, r24
    1668:	20 f0       	brcs	.+8      	; 0x1672 <main+0x182>
						{
							beep_tone(50);
    166a:	82 e3       	ldi	r24, 0x32	; 50
    166c:	90 e0       	ldi	r25, 0x00	; 0
    166e:	b9 de       	rcall	.-654    	; 0x13e2 <beep_tone>
							time_1=999;
    1670:	34 01       	movw	r6, r8
						};
						Main_menu (menu_item_father,menu_item_child,work_time,time_1,time_2);
    1672:	87 01       	movw	r16, r14
    1674:	93 01       	movw	r18, r6
    1676:	a6 01       	movw	r20, r12
    1678:	6d 2f       	mov	r22, r29
    167a:	81 e0       	ldi	r24, 0x01	; 1
    167c:	b4 d0       	rcall	.+360    	; 0x17e6 <Main_menu>
						//---------------------------------------------------------------------------------------
					};
					break;
    167e:	86 c0       	rjmp	.+268    	; 0x178c <main+0x29c>
					//---------------------------------------------------------------------------------------
					case 0x02 :
					{
						//---------------------------------------------------------------------------------------
						time_1--;
    1680:	91 e0       	ldi	r25, 0x01	; 1
    1682:	69 1a       	sub	r6, r25
    1684:	71 08       	sbc	r7, r1
						beep_tone(5);
    1686:	85 e0       	ldi	r24, 0x05	; 5
    1688:	90 e0       	ldi	r25, 0x00	; 0
    168a:	ab de       	rcall	.-682    	; 0x13e2 <beep_tone>
						if (time_1>999)
    168c:	e8 ee       	ldi	r30, 0xE8	; 232
    168e:	6e 16       	cp	r6, r30
    1690:	e3 e0       	ldi	r30, 0x03	; 3
    1692:	7e 06       	cpc	r7, r30
    1694:	20 f0       	brcs	.+8      	; 0x169e <main+0x1ae>
						{
							beep_tone(50);
    1696:	82 e3       	ldi	r24, 0x32	; 50
    1698:	90 e0       	ldi	r25, 0x00	; 0
    169a:	a3 de       	rcall	.-698    	; 0x13e2 <beep_tone>
							time_1=0;
    169c:	35 01       	movw	r6, r10
						};
						Main_menu (menu_item_father,menu_item_child,work_time,time_1,time_2);
    169e:	87 01       	movw	r16, r14
    16a0:	93 01       	movw	r18, r6
    16a2:	a6 01       	movw	r20, r12
    16a4:	6d 2f       	mov	r22, r29
    16a6:	81 e0       	ldi	r24, 0x01	; 1
    16a8:	9e d0       	rcall	.+316    	; 0x17e6 <Main_menu>
						//---------------------------------------------------------------------------------------
					};
					break;
    16aa:	70 c0       	rjmp	.+224    	; 0x178c <main+0x29c>
    16ac:	ef e7       	ldi	r30, 0x7F	; 127
    16ae:	fe e3       	ldi	r31, 0x3E	; 62
    16b0:	31 97       	sbiw	r30, 0x01	; 1
    16b2:	f1 f7       	brne	.-4      	; 0x16b0 <main+0x1c0>
    16b4:	00 c0       	rjmp	.+0      	; 0x16b6 <main+0x1c6>
    16b6:	00 00       	nop
    16b8:	81 50       	subi	r24, 0x01	; 1
					//---------------------------------------------------------------------------------------
					case 0x03 :
					{
						//---------------------------------------------------------------------------------------
						unsigned char cnt=0x00;
						while((cnt<250)&&(BitVal(PIN_BUTTON, OK)==0))
    16ba:	09 f4       	brne	.+2      	; 0x16be <main+0x1ce>
    16bc:	7c c0       	rjmp	.+248    	; 0x17b6 <main+0x2c6>
    16be:	9a 9b       	sbis	0x13, 2	; 19
    16c0:	f5 cf       	rjmp	.-22     	; 0x16ac <main+0x1bc>
    16c2:	6e c0       	rjmp	.+220    	; 0x17a0 <main+0x2b0>
					break;
					//---------------------------------------------------------------------------------------
					case 0x04 :
					{
						//---------------------------------------------------------------------------------------
						time_2++;
    16c4:	ff ef       	ldi	r31, 0xFF	; 255
    16c6:	ef 1a       	sub	r14, r31
    16c8:	ff 0a       	sbc	r15, r31
						beep_tone(5);
    16ca:	85 e0       	ldi	r24, 0x05	; 5
    16cc:	90 e0       	ldi	r25, 0x00	; 0
    16ce:	89 de       	rcall	.-750    	; 0x13e2 <beep_tone>
						if (time_2>999)
    16d0:	28 ee       	ldi	r18, 0xE8	; 232
    16d2:	e2 16       	cp	r14, r18
    16d4:	23 e0       	ldi	r18, 0x03	; 3
    16d6:	f2 06       	cpc	r15, r18
    16d8:	20 f0       	brcs	.+8      	; 0x16e2 <main+0x1f2>
						{
							beep_tone(50);
    16da:	82 e3       	ldi	r24, 0x32	; 50
    16dc:	90 e0       	ldi	r25, 0x00	; 0
    16de:	81 de       	rcall	.-766    	; 0x13e2 <beep_tone>
							time_2=999;
    16e0:	74 01       	movw	r14, r8
						};
						Main_menu (menu_item_father,menu_item_child,work_time,time_1,time_2);
    16e2:	87 01       	movw	r16, r14
    16e4:	93 01       	movw	r18, r6
    16e6:	a6 01       	movw	r20, r12
    16e8:	6d 2f       	mov	r22, r29
    16ea:	81 e0       	ldi	r24, 0x01	; 1
    16ec:	7c d0       	rcall	.+248    	; 0x17e6 <Main_menu>
						//---------------------------------------------------------------------------------------
					};
					break;
    16ee:	4e c0       	rjmp	.+156    	; 0x178c <main+0x29c>
					//---------------------------------------------------------------------------------------
					case 0x05 :
					{
						//---------------------------------------------------------------------------------------
						time_2--;
    16f0:	81 e0       	ldi	r24, 0x01	; 1
    16f2:	e8 1a       	sub	r14, r24
    16f4:	f1 08       	sbc	r15, r1
						beep_tone(5);
    16f6:	85 e0       	ldi	r24, 0x05	; 5
    16f8:	90 e0       	ldi	r25, 0x00	; 0
    16fa:	73 de       	rcall	.-794    	; 0x13e2 <beep_tone>
						if (time_2>999)
    16fc:	98 ee       	ldi	r25, 0xE8	; 232
    16fe:	e9 16       	cp	r14, r25
    1700:	93 e0       	ldi	r25, 0x03	; 3
    1702:	f9 06       	cpc	r15, r25
    1704:	20 f0       	brcs	.+8      	; 0x170e <main+0x21e>
						{
							beep_tone(50);
    1706:	82 e3       	ldi	r24, 0x32	; 50
    1708:	90 e0       	ldi	r25, 0x00	; 0
    170a:	6b de       	rcall	.-810    	; 0x13e2 <beep_tone>
							time_2=0;
    170c:	75 01       	movw	r14, r10
						};
						Main_menu (menu_item_father,menu_item_child,work_time,time_1,time_2);
    170e:	87 01       	movw	r16, r14
    1710:	93 01       	movw	r18, r6
    1712:	a6 01       	movw	r20, r12
    1714:	6d 2f       	mov	r22, r29
    1716:	81 e0       	ldi	r24, 0x01	; 1
    1718:	66 d0       	rcall	.+204    	; 0x17e6 <Main_menu>
						//---------------------------------------------------------------------------------------
					};
					break;
    171a:	38 c0       	rjmp	.+112    	; 0x178c <main+0x29c>
					//---------------------------------------------------------------------------------------
					case 0x06 :
					{
						//---------------------------------------------------------------------------------------
						work_time++;
    171c:	ef ef       	ldi	r30, 0xFF	; 255
    171e:	ce 1a       	sub	r12, r30
    1720:	de 0a       	sbc	r13, r30
						beep_tone(5);
    1722:	85 e0       	ldi	r24, 0x05	; 5
    1724:	90 e0       	ldi	r25, 0x00	; 0
    1726:	5d de       	rcall	.-838    	; 0x13e2 <beep_tone>
						if (work_time>999)
    1728:	f8 ee       	ldi	r31, 0xE8	; 232
    172a:	cf 16       	cp	r12, r31
    172c:	f3 e0       	ldi	r31, 0x03	; 3
    172e:	df 06       	cpc	r13, r31
    1730:	20 f0       	brcs	.+8      	; 0x173a <main+0x24a>
						{
							beep_tone(50);
    1732:	82 e3       	ldi	r24, 0x32	; 50
    1734:	90 e0       	ldi	r25, 0x00	; 0
    1736:	55 de       	rcall	.-854    	; 0x13e2 <beep_tone>
							work_time=999;
    1738:	64 01       	movw	r12, r8
						};
						Main_menu (menu_item_father,menu_item_child,work_time,time_1,time_2);
    173a:	87 01       	movw	r16, r14
    173c:	93 01       	movw	r18, r6
    173e:	a6 01       	movw	r20, r12
    1740:	6d 2f       	mov	r22, r29
    1742:	81 e0       	ldi	r24, 0x01	; 1
    1744:	50 d0       	rcall	.+160    	; 0x17e6 <Main_menu>
						//---------------------------------------------------------------------------------------
					};
					break;
    1746:	22 c0       	rjmp	.+68     	; 0x178c <main+0x29c>
					//---------------------------------------------------------------------------------------
					case 0x07 :
					{
						//---------------------------------------------------------------------------------------
						work_time--;
    1748:	21 e0       	ldi	r18, 0x01	; 1
    174a:	c2 1a       	sub	r12, r18
    174c:	d1 08       	sbc	r13, r1
						beep_tone(5);
    174e:	85 e0       	ldi	r24, 0x05	; 5
    1750:	90 e0       	ldi	r25, 0x00	; 0
    1752:	47 de       	rcall	.-882    	; 0x13e2 <beep_tone>
						if (work_time>999)
    1754:	88 ee       	ldi	r24, 0xE8	; 232
    1756:	c8 16       	cp	r12, r24
    1758:	83 e0       	ldi	r24, 0x03	; 3
    175a:	d8 06       	cpc	r13, r24
    175c:	20 f0       	brcs	.+8      	; 0x1766 <main+0x276>
						{
							beep_tone(50);
    175e:	82 e3       	ldi	r24, 0x32	; 50
    1760:	90 e0       	ldi	r25, 0x00	; 0
    1762:	3f de       	rcall	.-898    	; 0x13e2 <beep_tone>
							work_time=0;
    1764:	65 01       	movw	r12, r10
						};
						Main_menu (menu_item_father,menu_item_child,work_time,time_1,time_2);
    1766:	87 01       	movw	r16, r14
    1768:	93 01       	movw	r18, r6
    176a:	a6 01       	movw	r20, r12
    176c:	6d 2f       	mov	r22, r29
    176e:	81 e0       	ldi	r24, 0x01	; 1
    1770:	3a d0       	rcall	.+116    	; 0x17e6 <Main_menu>
						//---------------------------------------------------------------------------------------
					};
					break;
    1772:	0c c0       	rjmp	.+24     	; 0x178c <main+0x29c>
			//---------------------------------------------------------------------------------------
			case 0x02 :
			{
				//---------------------------------------------------------------------------------------
				//---------------------------------------------------------------------------------------
				switch (button)
    1774:	83 30       	cpi	r24, 0x03	; 3
    1776:	51 f4       	brne	.+20     	; 0x178c <main+0x29c>
					break;
					//---------------------------------------------------------------------------------------
					case 0x03 :
					{
						//---------------------------------------------------------------------------------------
						beep_tone(5);
    1778:	85 e0       	ldi	r24, 0x05	; 5
    177a:	90 e0       	ldi	r25, 0x00	; 0
    177c:	32 de       	rcall	.-924    	; 0x13e2 <beep_tone>
						menu_item_father=0x01;
						Main_menu (menu_item_father,menu_item_child,work_time,time_1,time_2);
    177e:	87 01       	movw	r16, r14
    1780:	93 01       	movw	r18, r6
    1782:	a6 01       	movw	r20, r12
    1784:	6d 2f       	mov	r22, r29
    1786:	81 e0       	ldi	r24, 0x01	; 1
    1788:	2e d0       	rcall	.+92     	; 0x17e6 <Main_menu>
					//---------------------------------------------------------------------------------------
					case 0x03 :
					{
						//---------------------------------------------------------------------------------------
						beep_tone(5);
						menu_item_father=0x01;
    178a:	c1 e0       	ldi	r28, 0x01	; 1
    178c:	9f ef       	ldi	r25, 0xFF	; 255
    178e:	e0 e7       	ldi	r30, 0x70	; 112
    1790:	f2 e0       	ldi	r31, 0x02	; 2
    1792:	91 50       	subi	r25, 0x01	; 1
    1794:	e0 40       	sbci	r30, 0x00	; 0
    1796:	f0 40       	sbci	r31, 0x00	; 0
    1798:	e1 f7       	brne	.-8      	; 0x1792 <main+0x2a2>
    179a:	00 c0       	rjmp	.+0      	; 0x179c <main+0x2ac>
    179c:	00 00       	nop
    179e:	03 cf       	rjmp	.-506    	; 0x15a6 <main+0xb6>
							cnt++;
							_delay_ms(4);
						};
						if (cnt<250)
						{
							beep_tone(5);
    17a0:	85 e0       	ldi	r24, 0x05	; 5
    17a2:	90 e0       	ldi	r25, 0x00	; 0
    17a4:	1e de       	rcall	.-964    	; 0x13e2 <beep_tone>
							menu_item_father=0x00;
							Main_menu (menu_item_father,menu_item_child,work_time,time_1,time_2);
    17a6:	87 01       	movw	r16, r14
    17a8:	93 01       	movw	r18, r6
    17aa:	a6 01       	movw	r20, r12
    17ac:	6d 2f       	mov	r22, r29
    17ae:	80 e0       	ldi	r24, 0x00	; 0
    17b0:	1a d0       	rcall	.+52     	; 0x17e6 <Main_menu>
							_delay_ms(4);
						};
						if (cnt<250)
						{
							beep_tone(5);
							menu_item_father=0x00;
    17b2:	c0 e0       	ldi	r28, 0x00	; 0
    17b4:	eb cf       	rjmp	.-42     	; 0x178c <main+0x29c>
							Main_menu (menu_item_father,menu_item_child,work_time,time_1,time_2);
						} 
						else
						{
							beep_tone(50);
    17b6:	82 e3       	ldi	r24, 0x32	; 50
    17b8:	90 e0       	ldi	r25, 0x00	; 0
    17ba:	13 de       	rcall	.-986    	; 0x13e2 <beep_tone>
							menu_item_father=0x02;
							Main_menu (menu_item_father,menu_item_child,work_time,time_1,time_2);
    17bc:	87 01       	movw	r16, r14
    17be:	93 01       	movw	r18, r6
    17c0:	a6 01       	movw	r20, r12
    17c2:	6d 2f       	mov	r22, r29
    17c4:	82 e0       	ldi	r24, 0x02	; 2
    17c6:	0f d0       	rcall	.+30     	; 0x17e6 <Main_menu>
							BUT_SetKey(0x00);
    17c8:	80 e0       	ldi	r24, 0x00	; 0
    17ca:	65 dd       	rcall	.-1334   	; 0x1296 <BUT_SetKey>
							//---------------------------------------------------------------------------------------
							start_work(time_1,time_2);
    17cc:	b7 01       	movw	r22, r14
    17ce:	c3 01       	movw	r24, r6
    17d0:	90 dd       	rcall	.-1248   	; 0x12f2 <start_work>
							Main_menu (menu_item_father,menu_item_child,work_time,time_1,time_2);
						} 
						else
						{
							beep_tone(50);
							menu_item_father=0x02;
    17d2:	c2 e0       	ldi	r28, 0x02	; 2
    17d4:	db cf       	rjmp	.-74     	; 0x178c <main+0x29c>
    17d6:	8f e7       	ldi	r24, 0x7F	; 127
    17d8:	9e e3       	ldi	r25, 0x3E	; 62
    17da:	01 97       	sbiw	r24, 0x01	; 1
    17dc:	f1 f7       	brne	.-4      	; 0x17da <main+0x2ea>
    17de:	00 c0       	rjmp	.+0      	; 0x17e0 <main+0x2f0>
    17e0:	00 00       	nop
    17e2:	85 2d       	mov	r24, r5
    17e4:	6c cf       	rjmp	.-296    	; 0x16be <main+0x1ce>

000017e6 <Main_menu>:
char const _MENU_TOL2_[]	PROGMEM = "UP     DOWN   -    +";
char const _MENU_TOL3_[]	PROGMEM = "SAVE    UP  DOWN  OK";
//---------------------------------------------------------------------------------------
//****************************************************************************************
void Main_menu (unsigned char parent,unsigned char child,unsigned int length,unsigned int speed_1,unsigned int speed_2)
{
    17e6:	bf 92       	push	r11
    17e8:	cf 92       	push	r12
    17ea:	df 92       	push	r13
    17ec:	ef 92       	push	r14
    17ee:	ff 92       	push	r15
    17f0:	0f 93       	push	r16
    17f2:	1f 93       	push	r17
    17f4:	cf 93       	push	r28
    17f6:	df 93       	push	r29
    17f8:	ea 01       	movw	r28, r20
    17fa:	79 01       	movw	r14, r18
	//---------------------------------------------------------------------------------------
	float temp=0;
	//---------------------------------------------------------------------------------------
	switch (parent) 
    17fc:	81 30       	cpi	r24, 0x01	; 1
    17fe:	09 f4       	brne	.+2      	; 0x1802 <Main_menu+0x1c>
    1800:	71 c1       	rjmp	.+738    	; 0x1ae4 <Main_menu+0x2fe>
    1802:	20 f0       	brcs	.+8      	; 0x180c <Main_menu+0x26>
    1804:	82 30       	cpi	r24, 0x02	; 2
    1806:	09 f0       	breq	.+2      	; 0x180a <Main_menu+0x24>
    1808:	2e c3       	rjmp	.+1628   	; 0x1e66 <Main_menu+0x680>
    180a:	9c c2       	rjmp	.+1336   	; 0x1d44 <Main_menu+0x55e>
	{
		//---------------------------------------------------------------------------------------
		case 0x00 : 
		{
			//---------------------------------------------------------------------------------------
			switch (child)
    180c:	65 30       	cpi	r22, 0x05	; 5
    180e:	09 f4       	brne	.+2      	; 0x1812 <Main_menu+0x2c>
    1810:	b0 c0       	rjmp	.+352    	; 0x1972 <Main_menu+0x18c>
    1812:	78 f4       	brcc	.+30     	; 0x1832 <Main_menu+0x4c>
    1814:	62 30       	cpi	r22, 0x02	; 2
    1816:	09 f4       	brne	.+2      	; 0x181a <Main_menu+0x34>
    1818:	3d c0       	rjmp	.+122    	; 0x1894 <Main_menu+0xae>
    181a:	20 f4       	brcc	.+8      	; 0x1824 <Main_menu+0x3e>
    181c:	61 30       	cpi	r22, 0x01	; 1
    181e:	09 f0       	breq	.+2      	; 0x1822 <Main_menu+0x3c>
    1820:	22 c3       	rjmp	.+1604   	; 0x1e66 <Main_menu+0x680>
    1822:	13 c0       	rjmp	.+38     	; 0x184a <Main_menu+0x64>
    1824:	63 30       	cpi	r22, 0x03	; 3
    1826:	09 f4       	brne	.+2      	; 0x182a <Main_menu+0x44>
    1828:	5a c0       	rjmp	.+180    	; 0x18de <Main_menu+0xf8>
    182a:	64 30       	cpi	r22, 0x04	; 4
    182c:	09 f0       	breq	.+2      	; 0x1830 <Main_menu+0x4a>
    182e:	1b c3       	rjmp	.+1590   	; 0x1e66 <Main_menu+0x680>
    1830:	7b c0       	rjmp	.+246    	; 0x1928 <Main_menu+0x142>
    1832:	67 30       	cpi	r22, 0x07	; 7
    1834:	09 f4       	brne	.+2      	; 0x1838 <Main_menu+0x52>
    1836:	e7 c0       	rjmp	.+462    	; 0x1a06 <Main_menu+0x220>
    1838:	08 f4       	brcc	.+2      	; 0x183c <Main_menu+0x56>
    183a:	c0 c0       	rjmp	.+384    	; 0x19bc <Main_menu+0x1d6>
    183c:	68 30       	cpi	r22, 0x08	; 8
    183e:	09 f4       	brne	.+2      	; 0x1842 <Main_menu+0x5c>
    1840:	07 c1       	rjmp	.+526    	; 0x1a50 <Main_menu+0x26a>
    1842:	69 30       	cpi	r22, 0x09	; 9
    1844:	09 f0       	breq	.+2      	; 0x1848 <Main_menu+0x62>
    1846:	0f c3       	rjmp	.+1566   	; 0x1e66 <Main_menu+0x680>
    1848:	28 c1       	rjmp	.+592    	; 0x1a9a <Main_menu+0x2b4>
				//---------------------------------------------------------------------------------------
				case 0x01 :
				{
					//---------------------------------------------------------------------------------------
					//---------------------------------------------------------------------------------------
					set_lcd_position(1,1);
    184a:	61 e0       	ldi	r22, 0x01	; 1
    184c:	81 e0       	ldi	r24, 0x01	; 1
    184e:	c5 db       	rcall	.-2166   	; 0xfda <set_lcd_position>
					send_lcd_string_P(_PROFILE_10_TIT_);				//   
    1850:	8e e5       	ldi	r24, 0x5E	; 94
    1852:	91 e0       	ldi	r25, 0x01	; 1
    1854:	da db       	rcall	.-2124   	; 0x100a <send_lcd_string_P>
					set_lcd_position(2,1);
    1856:	61 e0       	ldi	r22, 0x01	; 1
    1858:	82 e0       	ldi	r24, 0x02	; 2
    185a:	bf db       	rcall	.-2178   	; 0xfda <set_lcd_position>
					send_lcd_string_P(_PROFILE_20_TIT_);				//   
    185c:	89 e4       	ldi	r24, 0x49	; 73
    185e:	91 e0       	ldi	r25, 0x01	; 1
    1860:	d4 db       	rcall	.-2136   	; 0x100a <send_lcd_string_P>
					set_lcd_position(3,1);
    1862:	61 e0       	ldi	r22, 0x01	; 1
    1864:	83 e0       	ldi	r24, 0x03	; 3
    1866:	b9 db       	rcall	.-2190   	; 0xfda <set_lcd_position>
					send_lcd_string_P(_PROFILE_30_TIT_);				//   
    1868:	84 e3       	ldi	r24, 0x34	; 52
    186a:	91 e0       	ldi	r25, 0x01	; 1
    186c:	ce db       	rcall	.-2148   	; 0x100a <send_lcd_string_P>
					//---------------------------------------------------------------------------------------
					set_lcd_position(1,1);
    186e:	61 e0       	ldi	r22, 0x01	; 1
    1870:	81 e0       	ldi	r24, 0x01	; 1
    1872:	b3 db       	rcall	.-2202   	; 0xfda <set_lcd_position>
					send_lcd_string_P(_cel1_);
    1874:	82 e6       	ldi	r24, 0x62	; 98
    1876:	92 e0       	ldi	r25, 0x02	; 2
    1878:	c8 db       	rcall	.-2160   	; 0x100a <send_lcd_string_P>
					set_lcd_position(1,20);
    187a:	64 e1       	ldi	r22, 0x14	; 20
    187c:	81 e0       	ldi	r24, 0x01	; 1
    187e:	ad db       	rcall	.-2214   	; 0xfda <set_lcd_position>
					send_lcd_string_P(_cel2_);
    1880:	80 e6       	ldi	r24, 0x60	; 96
    1882:	92 e0       	ldi	r25, 0x02	; 2
    1884:	c2 db       	rcall	.-2172   	; 0x100a <send_lcd_string_P>
					//---------------------------------------------------------------------------------------
					set_lcd_position(4,1);
    1886:	61 e0       	ldi	r22, 0x01	; 1
    1888:	84 e0       	ldi	r24, 0x04	; 4
    188a:	a7 db       	rcall	.-2226   	; 0xfda <set_lcd_position>
					send_lcd_string_P(_MENU_TOL_);
    188c:	8c e8       	ldi	r24, 0x8C	; 140
    188e:	90 e0       	ldi	r25, 0x00	; 0
    1890:	bc db       	rcall	.-2184   	; 0x100a <send_lcd_string_P>
					//---------------------------------------------------------------------------------------
					//---------------------------------------------------------------------------------------
				};
				break;
    1892:	e9 c2       	rjmp	.+1490   	; 0x1e66 <Main_menu+0x680>
				//---------------------------------------------------------------------------------------
				case 0x02 :
				{
					//---------------------------------------------------------------------------------------
					set_lcd_position(1,1);
    1894:	61 e0       	ldi	r22, 0x01	; 1
    1896:	81 e0       	ldi	r24, 0x01	; 1
    1898:	a0 db       	rcall	.-2240   	; 0xfda <set_lcd_position>
					send_lcd_string_P(_PROFILE_20_TIT_);				//   
    189a:	89 e4       	ldi	r24, 0x49	; 73
    189c:	91 e0       	ldi	r25, 0x01	; 1
    189e:	b5 db       	rcall	.-2198   	; 0x100a <send_lcd_string_P>
					set_lcd_position(2,1);
    18a0:	61 e0       	ldi	r22, 0x01	; 1
    18a2:	82 e0       	ldi	r24, 0x02	; 2
    18a4:	9a db       	rcall	.-2252   	; 0xfda <set_lcd_position>
					send_lcd_string_P(_PROFILE_30_TIT_);				//   
    18a6:	84 e3       	ldi	r24, 0x34	; 52
    18a8:	91 e0       	ldi	r25, 0x01	; 1
    18aa:	af db       	rcall	.-2210   	; 0x100a <send_lcd_string_P>
					set_lcd_position(3,1);
    18ac:	61 e0       	ldi	r22, 0x01	; 1
    18ae:	83 e0       	ldi	r24, 0x03	; 3
    18b0:	94 db       	rcall	.-2264   	; 0xfda <set_lcd_position>
					send_lcd_string_P(_PROFILE_40_TIT_);				//   
    18b2:	8f e1       	ldi	r24, 0x1F	; 31
    18b4:	91 e0       	ldi	r25, 0x01	; 1
    18b6:	a9 db       	rcall	.-2222   	; 0x100a <send_lcd_string_P>
					//---------------------------------------------------------------------------------------
					set_lcd_position(1,1);
    18b8:	61 e0       	ldi	r22, 0x01	; 1
    18ba:	81 e0       	ldi	r24, 0x01	; 1
    18bc:	8e db       	rcall	.-2276   	; 0xfda <set_lcd_position>
					send_lcd_string_P(_cel1_);
    18be:	82 e6       	ldi	r24, 0x62	; 98
    18c0:	92 e0       	ldi	r25, 0x02	; 2
    18c2:	a3 db       	rcall	.-2234   	; 0x100a <send_lcd_string_P>
					set_lcd_position(1,20);
    18c4:	64 e1       	ldi	r22, 0x14	; 20
    18c6:	81 e0       	ldi	r24, 0x01	; 1
    18c8:	88 db       	rcall	.-2288   	; 0xfda <set_lcd_position>
					send_lcd_string_P(_cel2_);
    18ca:	80 e6       	ldi	r24, 0x60	; 96
    18cc:	92 e0       	ldi	r25, 0x02	; 2
    18ce:	9d db       	rcall	.-2246   	; 0x100a <send_lcd_string_P>
					//---------------------------------------------------------------------------------------
					set_lcd_position(4,1);
    18d0:	61 e0       	ldi	r22, 0x01	; 1
    18d2:	84 e0       	ldi	r24, 0x04	; 4
    18d4:	82 db       	rcall	.-2300   	; 0xfda <set_lcd_position>
					send_lcd_string_P(_MENU_TOL_);
    18d6:	8c e8       	ldi	r24, 0x8C	; 140
    18d8:	90 e0       	ldi	r25, 0x00	; 0
    18da:	97 db       	rcall	.-2258   	; 0x100a <send_lcd_string_P>
					//---------------------------------------------------------------------------------------

				};
				break;
    18dc:	c4 c2       	rjmp	.+1416   	; 0x1e66 <Main_menu+0x680>
				//---------------------------------------------------------------------------------------
				case 0x03 :
				{
					//---------------------------------------------------------------------------------------
					set_lcd_position(1,1);
    18de:	61 e0       	ldi	r22, 0x01	; 1
    18e0:	81 e0       	ldi	r24, 0x01	; 1
    18e2:	7b db       	rcall	.-2314   	; 0xfda <set_lcd_position>
					send_lcd_string_P(_PROFILE_30_TIT_);				//   
    18e4:	84 e3       	ldi	r24, 0x34	; 52
    18e6:	91 e0       	ldi	r25, 0x01	; 1
    18e8:	90 db       	rcall	.-2272   	; 0x100a <send_lcd_string_P>
					set_lcd_position(2,1);
    18ea:	61 e0       	ldi	r22, 0x01	; 1
    18ec:	82 e0       	ldi	r24, 0x02	; 2
    18ee:	75 db       	rcall	.-2326   	; 0xfda <set_lcd_position>
					send_lcd_string_P(_PROFILE_40_TIT_);				//   
    18f0:	8f e1       	ldi	r24, 0x1F	; 31
    18f2:	91 e0       	ldi	r25, 0x01	; 1
    18f4:	8a db       	rcall	.-2284   	; 0x100a <send_lcd_string_P>
					set_lcd_position(3,1);
    18f6:	61 e0       	ldi	r22, 0x01	; 1
    18f8:	83 e0       	ldi	r24, 0x03	; 3
    18fa:	6f db       	rcall	.-2338   	; 0xfda <set_lcd_position>
					send_lcd_string_P(_PROFILE_50_TIT_);				//   
    18fc:	8a e0       	ldi	r24, 0x0A	; 10
    18fe:	91 e0       	ldi	r25, 0x01	; 1
    1900:	84 db       	rcall	.-2296   	; 0x100a <send_lcd_string_P>
					//---------------------------------------------------------------------------------------
					set_lcd_position(1,1);
    1902:	61 e0       	ldi	r22, 0x01	; 1
    1904:	81 e0       	ldi	r24, 0x01	; 1
    1906:	69 db       	rcall	.-2350   	; 0xfda <set_lcd_position>
					send_lcd_string_P(_cel1_);
    1908:	82 e6       	ldi	r24, 0x62	; 98
    190a:	92 e0       	ldi	r25, 0x02	; 2
    190c:	7e db       	rcall	.-2308   	; 0x100a <send_lcd_string_P>
					set_lcd_position(1,20);
    190e:	64 e1       	ldi	r22, 0x14	; 20
    1910:	81 e0       	ldi	r24, 0x01	; 1
    1912:	63 db       	rcall	.-2362   	; 0xfda <set_lcd_position>
					send_lcd_string_P(_cel2_);
    1914:	80 e6       	ldi	r24, 0x60	; 96
    1916:	92 e0       	ldi	r25, 0x02	; 2
    1918:	78 db       	rcall	.-2320   	; 0x100a <send_lcd_string_P>
					//---------------------------------------------------------------------------------------
					set_lcd_position(4,1);
    191a:	61 e0       	ldi	r22, 0x01	; 1
    191c:	84 e0       	ldi	r24, 0x04	; 4
    191e:	5d db       	rcall	.-2374   	; 0xfda <set_lcd_position>
					send_lcd_string_P(_MENU_TOL_);
    1920:	8c e8       	ldi	r24, 0x8C	; 140
    1922:	90 e0       	ldi	r25, 0x00	; 0
    1924:	72 db       	rcall	.-2332   	; 0x100a <send_lcd_string_P>
					//---------------------------------------------------------------------------------------

				};
				break;
    1926:	9f c2       	rjmp	.+1342   	; 0x1e66 <Main_menu+0x680>
				//---------------------------------------------------------------------------------------
				case 0x04 :
				{
					//---------------------------------------------------------------------------------------
					set_lcd_position(1,1);
    1928:	61 e0       	ldi	r22, 0x01	; 1
    192a:	81 e0       	ldi	r24, 0x01	; 1
    192c:	56 db       	rcall	.-2388   	; 0xfda <set_lcd_position>
					send_lcd_string_P(_PROFILE_40_TIT_);				//   
    192e:	8f e1       	ldi	r24, 0x1F	; 31
    1930:	91 e0       	ldi	r25, 0x01	; 1
    1932:	6b db       	rcall	.-2346   	; 0x100a <send_lcd_string_P>
					set_lcd_position(2,1);
    1934:	61 e0       	ldi	r22, 0x01	; 1
    1936:	82 e0       	ldi	r24, 0x02	; 2
    1938:	50 db       	rcall	.-2400   	; 0xfda <set_lcd_position>
					send_lcd_string_P(_PROFILE_50_TIT_);				//   
    193a:	8a e0       	ldi	r24, 0x0A	; 10
    193c:	91 e0       	ldi	r25, 0x01	; 1
    193e:	65 db       	rcall	.-2358   	; 0x100a <send_lcd_string_P>
					set_lcd_position(3,1);
    1940:	61 e0       	ldi	r22, 0x01	; 1
    1942:	83 e0       	ldi	r24, 0x03	; 3
    1944:	4a db       	rcall	.-2412   	; 0xfda <set_lcd_position>
					send_lcd_string_P(_PROFILE_60_TIT_);				//   
    1946:	85 ef       	ldi	r24, 0xF5	; 245
    1948:	90 e0       	ldi	r25, 0x00	; 0
    194a:	5f db       	rcall	.-2370   	; 0x100a <send_lcd_string_P>
					//---------------------------------------------------------------------------------------
					set_lcd_position(1,1);
    194c:	61 e0       	ldi	r22, 0x01	; 1
    194e:	81 e0       	ldi	r24, 0x01	; 1
    1950:	44 db       	rcall	.-2424   	; 0xfda <set_lcd_position>
					send_lcd_string_P(_cel1_);
    1952:	82 e6       	ldi	r24, 0x62	; 98
    1954:	92 e0       	ldi	r25, 0x02	; 2
    1956:	59 db       	rcall	.-2382   	; 0x100a <send_lcd_string_P>
					set_lcd_position(1,20);
    1958:	64 e1       	ldi	r22, 0x14	; 20
    195a:	81 e0       	ldi	r24, 0x01	; 1
    195c:	3e db       	rcall	.-2436   	; 0xfda <set_lcd_position>
					send_lcd_string_P(_cel2_);
    195e:	80 e6       	ldi	r24, 0x60	; 96
    1960:	92 e0       	ldi	r25, 0x02	; 2
    1962:	53 db       	rcall	.-2394   	; 0x100a <send_lcd_string_P>
					//---------------------------------------------------------------------------------------
					set_lcd_position(4,1);
    1964:	61 e0       	ldi	r22, 0x01	; 1
    1966:	84 e0       	ldi	r24, 0x04	; 4
    1968:	38 db       	rcall	.-2448   	; 0xfda <set_lcd_position>
					send_lcd_string_P(_MENU_TOL_);
    196a:	8c e8       	ldi	r24, 0x8C	; 140
    196c:	90 e0       	ldi	r25, 0x00	; 0
    196e:	4d db       	rcall	.-2406   	; 0x100a <send_lcd_string_P>
					//---------------------------------------------------------------------------------------

				};
				break;
    1970:	7a c2       	rjmp	.+1268   	; 0x1e66 <Main_menu+0x680>
				//---------------------------------------------------------------------------------------
				case 0x05 :
				{
					//---------------------------------------------------------------------------------------
					set_lcd_position(1,1);
    1972:	61 e0       	ldi	r22, 0x01	; 1
    1974:	81 e0       	ldi	r24, 0x01	; 1
    1976:	31 db       	rcall	.-2462   	; 0xfda <set_lcd_position>
					send_lcd_string_P(_PROFILE_50_TIT_);				//   
    1978:	8a e0       	ldi	r24, 0x0A	; 10
    197a:	91 e0       	ldi	r25, 0x01	; 1
    197c:	46 db       	rcall	.-2420   	; 0x100a <send_lcd_string_P>
					set_lcd_position(2,1);
    197e:	61 e0       	ldi	r22, 0x01	; 1
    1980:	82 e0       	ldi	r24, 0x02	; 2
    1982:	2b db       	rcall	.-2474   	; 0xfda <set_lcd_position>
					send_lcd_string_P(_PROFILE_60_TIT_);				//   
    1984:	85 ef       	ldi	r24, 0xF5	; 245
    1986:	90 e0       	ldi	r25, 0x00	; 0
    1988:	40 db       	rcall	.-2432   	; 0x100a <send_lcd_string_P>
					set_lcd_position(3,1);
    198a:	61 e0       	ldi	r22, 0x01	; 1
    198c:	83 e0       	ldi	r24, 0x03	; 3
    198e:	25 db       	rcall	.-2486   	; 0xfda <set_lcd_position>
					send_lcd_string_P(_PROFILE_70_TIT_);				//   
    1990:	80 ee       	ldi	r24, 0xE0	; 224
    1992:	90 e0       	ldi	r25, 0x00	; 0
    1994:	3a db       	rcall	.-2444   	; 0x100a <send_lcd_string_P>
					//---------------------------------------------------------------------------------------
					set_lcd_position(1,1);
    1996:	61 e0       	ldi	r22, 0x01	; 1
    1998:	81 e0       	ldi	r24, 0x01	; 1
    199a:	1f db       	rcall	.-2498   	; 0xfda <set_lcd_position>
					send_lcd_string_P(_cel1_);
    199c:	82 e6       	ldi	r24, 0x62	; 98
    199e:	92 e0       	ldi	r25, 0x02	; 2
    19a0:	34 db       	rcall	.-2456   	; 0x100a <send_lcd_string_P>
					set_lcd_position(1,20);
    19a2:	64 e1       	ldi	r22, 0x14	; 20
    19a4:	81 e0       	ldi	r24, 0x01	; 1
    19a6:	19 db       	rcall	.-2510   	; 0xfda <set_lcd_position>
					send_lcd_string_P(_cel2_);
    19a8:	80 e6       	ldi	r24, 0x60	; 96
    19aa:	92 e0       	ldi	r25, 0x02	; 2
    19ac:	2e db       	rcall	.-2468   	; 0x100a <send_lcd_string_P>
					//---------------------------------------------------------------------------------------
					set_lcd_position(4,1);
    19ae:	61 e0       	ldi	r22, 0x01	; 1
    19b0:	84 e0       	ldi	r24, 0x04	; 4
    19b2:	13 db       	rcall	.-2522   	; 0xfda <set_lcd_position>
					send_lcd_string_P(_MENU_TOL_);
    19b4:	8c e8       	ldi	r24, 0x8C	; 140
    19b6:	90 e0       	ldi	r25, 0x00	; 0
    19b8:	28 db       	rcall	.-2480   	; 0x100a <send_lcd_string_P>
					//---------------------------------------------------------------------------------------

				};
				break;
    19ba:	55 c2       	rjmp	.+1194   	; 0x1e66 <Main_menu+0x680>
				//---------------------------------------------------------------------------------------
				case 0x06 :
				{
					//---------------------------------------------------------------------------------------
					set_lcd_position(1,1);
    19bc:	61 e0       	ldi	r22, 0x01	; 1
    19be:	81 e0       	ldi	r24, 0x01	; 1
    19c0:	0c db       	rcall	.-2536   	; 0xfda <set_lcd_position>
					send_lcd_string_P(_PROFILE_60_TIT_);				//   
    19c2:	85 ef       	ldi	r24, 0xF5	; 245
    19c4:	90 e0       	ldi	r25, 0x00	; 0
    19c6:	21 db       	rcall	.-2494   	; 0x100a <send_lcd_string_P>
					set_lcd_position(2,1);
    19c8:	61 e0       	ldi	r22, 0x01	; 1
    19ca:	82 e0       	ldi	r24, 0x02	; 2
    19cc:	06 db       	rcall	.-2548   	; 0xfda <set_lcd_position>
					send_lcd_string_P(_PROFILE_70_TIT_);				//   
    19ce:	80 ee       	ldi	r24, 0xE0	; 224
    19d0:	90 e0       	ldi	r25, 0x00	; 0
    19d2:	1b db       	rcall	.-2506   	; 0x100a <send_lcd_string_P>
					set_lcd_position(3,1);
    19d4:	61 e0       	ldi	r22, 0x01	; 1
    19d6:	83 e0       	ldi	r24, 0x03	; 3
    19d8:	00 db       	rcall	.-2560   	; 0xfda <set_lcd_position>
					send_lcd_string_P(_PROFILE_80_TIT_);				//   
    19da:	8b ec       	ldi	r24, 0xCB	; 203
    19dc:	90 e0       	ldi	r25, 0x00	; 0
    19de:	15 db       	rcall	.-2518   	; 0x100a <send_lcd_string_P>
					//---------------------------------------------------------------------------------------
					set_lcd_position(1,1);
    19e0:	61 e0       	ldi	r22, 0x01	; 1
    19e2:	81 e0       	ldi	r24, 0x01	; 1
    19e4:	fa da       	rcall	.-2572   	; 0xfda <set_lcd_position>
					send_lcd_string_P(_cel1_);
    19e6:	82 e6       	ldi	r24, 0x62	; 98
    19e8:	92 e0       	ldi	r25, 0x02	; 2
    19ea:	0f db       	rcall	.-2530   	; 0x100a <send_lcd_string_P>
					set_lcd_position(1,20);
    19ec:	64 e1       	ldi	r22, 0x14	; 20
    19ee:	81 e0       	ldi	r24, 0x01	; 1
    19f0:	f4 da       	rcall	.-2584   	; 0xfda <set_lcd_position>
					send_lcd_string_P(_cel2_);
    19f2:	80 e6       	ldi	r24, 0x60	; 96
    19f4:	92 e0       	ldi	r25, 0x02	; 2
    19f6:	09 db       	rcall	.-2542   	; 0x100a <send_lcd_string_P>
					//---------------------------------------------------------------------------------------
					set_lcd_position(4,1);
    19f8:	61 e0       	ldi	r22, 0x01	; 1
    19fa:	84 e0       	ldi	r24, 0x04	; 4
    19fc:	ee da       	rcall	.-2596   	; 0xfda <set_lcd_position>
					send_lcd_string_P(_MENU_TOL_);
    19fe:	8c e8       	ldi	r24, 0x8C	; 140
    1a00:	90 e0       	ldi	r25, 0x00	; 0
    1a02:	03 db       	rcall	.-2554   	; 0x100a <send_lcd_string_P>
					//---------------------------------------------------------------------------------------

				};
				break;
    1a04:	30 c2       	rjmp	.+1120   	; 0x1e66 <Main_menu+0x680>
				//---------------------------------------------------------------------------------------
				case 0x07 :
				{
					//---------------------------------------------------------------------------------------
					set_lcd_position(1,1);
    1a06:	61 e0       	ldi	r22, 0x01	; 1
    1a08:	81 e0       	ldi	r24, 0x01	; 1
    1a0a:	e7 da       	rcall	.-2610   	; 0xfda <set_lcd_position>
					send_lcd_string_P(_PROFILE_70_TIT_);				//   
    1a0c:	80 ee       	ldi	r24, 0xE0	; 224
    1a0e:	90 e0       	ldi	r25, 0x00	; 0
    1a10:	fc da       	rcall	.-2568   	; 0x100a <send_lcd_string_P>
					set_lcd_position(2,1);
    1a12:	61 e0       	ldi	r22, 0x01	; 1
    1a14:	82 e0       	ldi	r24, 0x02	; 2
    1a16:	e1 da       	rcall	.-2622   	; 0xfda <set_lcd_position>
					send_lcd_string_P(_PROFILE_80_TIT_);				//   
    1a18:	8b ec       	ldi	r24, 0xCB	; 203
    1a1a:	90 e0       	ldi	r25, 0x00	; 0
    1a1c:	f6 da       	rcall	.-2580   	; 0x100a <send_lcd_string_P>
					set_lcd_position(3,1);
    1a1e:	61 e0       	ldi	r22, 0x01	; 1
    1a20:	83 e0       	ldi	r24, 0x03	; 3
    1a22:	db da       	rcall	.-2634   	; 0xfda <set_lcd_position>
					send_lcd_string_P(_PROFILE_90_TIT_);				//   
    1a24:	86 eb       	ldi	r24, 0xB6	; 182
    1a26:	90 e0       	ldi	r25, 0x00	; 0
    1a28:	f0 da       	rcall	.-2592   	; 0x100a <send_lcd_string_P>
					//---------------------------------------------------------------------------------------
					set_lcd_position(1,1);
    1a2a:	61 e0       	ldi	r22, 0x01	; 1
    1a2c:	81 e0       	ldi	r24, 0x01	; 1
    1a2e:	d5 da       	rcall	.-2646   	; 0xfda <set_lcd_position>
					send_lcd_string_P(_cel1_);
    1a30:	82 e6       	ldi	r24, 0x62	; 98
    1a32:	92 e0       	ldi	r25, 0x02	; 2
    1a34:	ea da       	rcall	.-2604   	; 0x100a <send_lcd_string_P>
					set_lcd_position(1,20);
    1a36:	64 e1       	ldi	r22, 0x14	; 20
    1a38:	81 e0       	ldi	r24, 0x01	; 1
    1a3a:	cf da       	rcall	.-2658   	; 0xfda <set_lcd_position>
					send_lcd_string_P(_cel2_);
    1a3c:	80 e6       	ldi	r24, 0x60	; 96
    1a3e:	92 e0       	ldi	r25, 0x02	; 2
    1a40:	e4 da       	rcall	.-2616   	; 0x100a <send_lcd_string_P>
					//---------------------------------------------------------------------------------------
					set_lcd_position(4,1);
    1a42:	61 e0       	ldi	r22, 0x01	; 1
    1a44:	84 e0       	ldi	r24, 0x04	; 4
    1a46:	c9 da       	rcall	.-2670   	; 0xfda <set_lcd_position>
					send_lcd_string_P(_MENU_TOL_);
    1a48:	8c e8       	ldi	r24, 0x8C	; 140
    1a4a:	90 e0       	ldi	r25, 0x00	; 0
    1a4c:	de da       	rcall	.-2628   	; 0x100a <send_lcd_string_P>
					//---------------------------------------------------------------------------------------

				};
				break;
    1a4e:	0b c2       	rjmp	.+1046   	; 0x1e66 <Main_menu+0x680>
				//---------------------------------------------------------------------------------------
				case 0x08 :
				{
					//---------------------------------------------------------------------------------------
					set_lcd_position(1,1);
    1a50:	61 e0       	ldi	r22, 0x01	; 1
    1a52:	81 e0       	ldi	r24, 0x01	; 1
    1a54:	c2 da       	rcall	.-2684   	; 0xfda <set_lcd_position>
					send_lcd_string_P(_PROFILE_70_TIT_);				//   
    1a56:	80 ee       	ldi	r24, 0xE0	; 224
    1a58:	90 e0       	ldi	r25, 0x00	; 0
    1a5a:	d7 da       	rcall	.-2642   	; 0x100a <send_lcd_string_P>
					set_lcd_position(2,1);
    1a5c:	61 e0       	ldi	r22, 0x01	; 1
    1a5e:	82 e0       	ldi	r24, 0x02	; 2
    1a60:	bc da       	rcall	.-2696   	; 0xfda <set_lcd_position>
					send_lcd_string_P(_PROFILE_80_TIT_);				//   
    1a62:	8b ec       	ldi	r24, 0xCB	; 203
    1a64:	90 e0       	ldi	r25, 0x00	; 0
    1a66:	d1 da       	rcall	.-2654   	; 0x100a <send_lcd_string_P>
					set_lcd_position(3,1);
    1a68:	61 e0       	ldi	r22, 0x01	; 1
    1a6a:	83 e0       	ldi	r24, 0x03	; 3
    1a6c:	b6 da       	rcall	.-2708   	; 0xfda <set_lcd_position>
					send_lcd_string_P(_PROFILE_90_TIT_);				//   
    1a6e:	86 eb       	ldi	r24, 0xB6	; 182
    1a70:	90 e0       	ldi	r25, 0x00	; 0
    1a72:	cb da       	rcall	.-2666   	; 0x100a <send_lcd_string_P>
					//---------------------------------------------------------------------------------------
					set_lcd_position(2,1);
    1a74:	61 e0       	ldi	r22, 0x01	; 1
    1a76:	82 e0       	ldi	r24, 0x02	; 2
    1a78:	b0 da       	rcall	.-2720   	; 0xfda <set_lcd_position>
					send_lcd_string_P(_cel1_);
    1a7a:	82 e6       	ldi	r24, 0x62	; 98
    1a7c:	92 e0       	ldi	r25, 0x02	; 2
    1a7e:	c5 da       	rcall	.-2678   	; 0x100a <send_lcd_string_P>
					set_lcd_position(2,20);
    1a80:	64 e1       	ldi	r22, 0x14	; 20
    1a82:	82 e0       	ldi	r24, 0x02	; 2
    1a84:	aa da       	rcall	.-2732   	; 0xfda <set_lcd_position>
					send_lcd_string_P(_cel2_);
    1a86:	80 e6       	ldi	r24, 0x60	; 96
    1a88:	92 e0       	ldi	r25, 0x02	; 2
    1a8a:	bf da       	rcall	.-2690   	; 0x100a <send_lcd_string_P>
					//---------------------------------------------------------------------------------------
					set_lcd_position(4,1);
    1a8c:	61 e0       	ldi	r22, 0x01	; 1
    1a8e:	84 e0       	ldi	r24, 0x04	; 4
    1a90:	a4 da       	rcall	.-2744   	; 0xfda <set_lcd_position>
					send_lcd_string_P(_MENU_TOL_);
    1a92:	8c e8       	ldi	r24, 0x8C	; 140
    1a94:	90 e0       	ldi	r25, 0x00	; 0
    1a96:	b9 da       	rcall	.-2702   	; 0x100a <send_lcd_string_P>
					//---------------------------------------------------------------------------------------

				};
				break;
    1a98:	e6 c1       	rjmp	.+972    	; 0x1e66 <Main_menu+0x680>
				//---------------------------------------------------------------------------------------
				case 0x09 :
				{
					//---------------------------------------------------------------------------------------
					set_lcd_position(1,1);
    1a9a:	61 e0       	ldi	r22, 0x01	; 1
    1a9c:	81 e0       	ldi	r24, 0x01	; 1
    1a9e:	9d da       	rcall	.-2758   	; 0xfda <set_lcd_position>
					send_lcd_string_P(_PROFILE_70_TIT_);				//   
    1aa0:	80 ee       	ldi	r24, 0xE0	; 224
    1aa2:	90 e0       	ldi	r25, 0x00	; 0
    1aa4:	b2 da       	rcall	.-2716   	; 0x100a <send_lcd_string_P>
					set_lcd_position(2,1);
    1aa6:	61 e0       	ldi	r22, 0x01	; 1
    1aa8:	82 e0       	ldi	r24, 0x02	; 2
    1aaa:	97 da       	rcall	.-2770   	; 0xfda <set_lcd_position>
					send_lcd_string_P(_PROFILE_80_TIT_);				//   
    1aac:	8b ec       	ldi	r24, 0xCB	; 203
    1aae:	90 e0       	ldi	r25, 0x00	; 0
    1ab0:	ac da       	rcall	.-2728   	; 0x100a <send_lcd_string_P>
					set_lcd_position(3,1);
    1ab2:	61 e0       	ldi	r22, 0x01	; 1
    1ab4:	83 e0       	ldi	r24, 0x03	; 3
    1ab6:	91 da       	rcall	.-2782   	; 0xfda <set_lcd_position>
					send_lcd_string_P(_PROFILE_90_TIT_);				//   
    1ab8:	86 eb       	ldi	r24, 0xB6	; 182
    1aba:	90 e0       	ldi	r25, 0x00	; 0
    1abc:	a6 da       	rcall	.-2740   	; 0x100a <send_lcd_string_P>
					//---------------------------------------------------------------------------------------
					set_lcd_position(3,1);
    1abe:	61 e0       	ldi	r22, 0x01	; 1
    1ac0:	83 e0       	ldi	r24, 0x03	; 3
    1ac2:	8b da       	rcall	.-2794   	; 0xfda <set_lcd_position>
					send_lcd_string_P(_cel1_);
    1ac4:	82 e6       	ldi	r24, 0x62	; 98
    1ac6:	92 e0       	ldi	r25, 0x02	; 2
    1ac8:	a0 da       	rcall	.-2752   	; 0x100a <send_lcd_string_P>
					set_lcd_position(3,20);
    1aca:	64 e1       	ldi	r22, 0x14	; 20
    1acc:	83 e0       	ldi	r24, 0x03	; 3
    1ace:	85 da       	rcall	.-2806   	; 0xfda <set_lcd_position>
					send_lcd_string_P(_cel2_);
    1ad0:	80 e6       	ldi	r24, 0x60	; 96
    1ad2:	92 e0       	ldi	r25, 0x02	; 2
    1ad4:	9a da       	rcall	.-2764   	; 0x100a <send_lcd_string_P>
					//---------------------------------------------------------------------------------------
					set_lcd_position(4,1);
    1ad6:	61 e0       	ldi	r22, 0x01	; 1
    1ad8:	84 e0       	ldi	r24, 0x04	; 4
    1ada:	7f da       	rcall	.-2818   	; 0xfda <set_lcd_position>
					send_lcd_string_P(_MENU_TOL_);
    1adc:	8c e8       	ldi	r24, 0x8C	; 140
    1ade:	90 e0       	ldi	r25, 0x00	; 0
    1ae0:	94 da       	rcall	.-2776   	; 0x100a <send_lcd_string_P>
					//---------------------------------------------------------------------------------------

				};
				break;
    1ae2:	c1 c1       	rjmp	.+898    	; 0x1e66 <Main_menu+0x680>
// 			set_lcd_position(2,1);
// 			send_lcd_string_P(_NULL_);				//   
// 			set_lcd_position(3,1);
// 			send_lcd_string_P(_NULL_);				//   
			//---------------------------------------------------------------------------------------
			switch (child)
    1ae4:	65 30       	cpi	r22, 0x05	; 5
    1ae6:	a1 f1       	breq	.+104    	; 0x1b50 <Main_menu+0x36a>
    1ae8:	68 f4       	brcc	.+26     	; 0x1b04 <Main_menu+0x31e>
    1aea:	62 30       	cpi	r22, 0x02	; 2
    1aec:	e1 f0       	breq	.+56     	; 0x1b26 <Main_menu+0x340>
    1aee:	20 f4       	brcc	.+8      	; 0x1af8 <Main_menu+0x312>
    1af0:	61 30       	cpi	r22, 0x01	; 1
    1af2:	09 f0       	breq	.+2      	; 0x1af6 <Main_menu+0x310>
    1af4:	4f c0       	rjmp	.+158    	; 0x1b94 <Main_menu+0x3ae>
    1af6:	10 c0       	rjmp	.+32     	; 0x1b18 <Main_menu+0x332>
    1af8:	63 30       	cpi	r22, 0x03	; 3
    1afa:	e1 f0       	breq	.+56     	; 0x1b34 <Main_menu+0x34e>
    1afc:	64 30       	cpi	r22, 0x04	; 4
    1afe:	09 f0       	breq	.+2      	; 0x1b02 <Main_menu+0x31c>
    1b00:	49 c0       	rjmp	.+146    	; 0x1b94 <Main_menu+0x3ae>
    1b02:	1f c0       	rjmp	.+62     	; 0x1b42 <Main_menu+0x35c>
    1b04:	67 30       	cpi	r22, 0x07	; 7
    1b06:	91 f1       	breq	.+100    	; 0x1b6c <Main_menu+0x386>
    1b08:	50 f1       	brcs	.+84     	; 0x1b5e <Main_menu+0x378>
    1b0a:	68 30       	cpi	r22, 0x08	; 8
    1b0c:	09 f4       	brne	.+2      	; 0x1b10 <Main_menu+0x32a>
    1b0e:	35 c0       	rjmp	.+106    	; 0x1b7a <Main_menu+0x394>
    1b10:	69 30       	cpi	r22, 0x09	; 9
    1b12:	09 f0       	breq	.+2      	; 0x1b16 <Main_menu+0x330>
    1b14:	3f c0       	rjmp	.+126    	; 0x1b94 <Main_menu+0x3ae>
    1b16:	38 c0       	rjmp	.+112    	; 0x1b88 <Main_menu+0x3a2>
				break;
				//---------------------------------------------------------------------------------------
				case 0x01 :
				{
					//---------------------------------------------------------------------------------------
					set_lcd_position(1,1);
    1b18:	61 e0       	ldi	r22, 0x01	; 1
    1b1a:	81 e0       	ldi	r24, 0x01	; 1
    1b1c:	5e da       	rcall	.-2884   	; 0xfda <set_lcd_position>
					send_lcd_string_P(_PROFILE_10_TIT_);				//   
    1b1e:	8e e5       	ldi	r24, 0x5E	; 94
    1b20:	91 e0       	ldi	r25, 0x01	; 1
    1b22:	73 da       	rcall	.-2842   	; 0x100a <send_lcd_string_P>
					//---------------------------------------------------------------------------------------
				};
				break;
    1b24:	37 c0       	rjmp	.+110    	; 0x1b94 <Main_menu+0x3ae>
				//---------------------------------------------------------------------------------------
				case 0x02 :
				{
					//---------------------------------------------------------------------------------------
					set_lcd_position(1,1);
    1b26:	61 e0       	ldi	r22, 0x01	; 1
    1b28:	81 e0       	ldi	r24, 0x01	; 1
    1b2a:	57 da       	rcall	.-2898   	; 0xfda <set_lcd_position>
					send_lcd_string_P(_PROFILE_20_TIT_);				//   
    1b2c:	89 e4       	ldi	r24, 0x49	; 73
    1b2e:	91 e0       	ldi	r25, 0x01	; 1
    1b30:	6c da       	rcall	.-2856   	; 0x100a <send_lcd_string_P>
					//---------------------------------------------------------------------------------------

				};
				break;
    1b32:	30 c0       	rjmp	.+96     	; 0x1b94 <Main_menu+0x3ae>
				//---------------------------------------------------------------------------------------
				case 0x03 :
				{
					//---------------------------------------------------------------------------------------
					set_lcd_position(1,1);
    1b34:	61 e0       	ldi	r22, 0x01	; 1
    1b36:	81 e0       	ldi	r24, 0x01	; 1
    1b38:	50 da       	rcall	.-2912   	; 0xfda <set_lcd_position>
					send_lcd_string_P(_PROFILE_30_TIT_);				//   
    1b3a:	84 e3       	ldi	r24, 0x34	; 52
    1b3c:	91 e0       	ldi	r25, 0x01	; 1
    1b3e:	65 da       	rcall	.-2870   	; 0x100a <send_lcd_string_P>
					//---------------------------------------------------------------------------------------

				};
				break;
    1b40:	29 c0       	rjmp	.+82     	; 0x1b94 <Main_menu+0x3ae>
				//---------------------------------------------------------------------------------------
				case 0x04 :
				{
					//---------------------------------------------------------------------------------------
					set_lcd_position(1,1);
    1b42:	61 e0       	ldi	r22, 0x01	; 1
    1b44:	81 e0       	ldi	r24, 0x01	; 1
    1b46:	49 da       	rcall	.-2926   	; 0xfda <set_lcd_position>
					send_lcd_string_P(_PROFILE_40_TIT_);				//   
    1b48:	8f e1       	ldi	r24, 0x1F	; 31
    1b4a:	91 e0       	ldi	r25, 0x01	; 1
    1b4c:	5e da       	rcall	.-2884   	; 0x100a <send_lcd_string_P>
					//---------------------------------------------------------------------------------------

				};
				break;
    1b4e:	22 c0       	rjmp	.+68     	; 0x1b94 <Main_menu+0x3ae>
				//---------------------------------------------------------------------------------------
				case 0x05 :
				{
					//---------------------------------------------------------------------------------------
					set_lcd_position(1,1);
    1b50:	61 e0       	ldi	r22, 0x01	; 1
    1b52:	81 e0       	ldi	r24, 0x01	; 1
    1b54:	42 da       	rcall	.-2940   	; 0xfda <set_lcd_position>
					send_lcd_string_P(_PROFILE_50_TIT_);				//   
    1b56:	8a e0       	ldi	r24, 0x0A	; 10
    1b58:	91 e0       	ldi	r25, 0x01	; 1
    1b5a:	57 da       	rcall	.-2898   	; 0x100a <send_lcd_string_P>
					//---------------------------------------------------------------------------------------

				};
				break;
    1b5c:	1b c0       	rjmp	.+54     	; 0x1b94 <Main_menu+0x3ae>
				//---------------------------------------------------------------------------------------
				case 0x06 :
				{
					//---------------------------------------------------------------------------------------
					set_lcd_position(1,1);
    1b5e:	61 e0       	ldi	r22, 0x01	; 1
    1b60:	81 e0       	ldi	r24, 0x01	; 1
    1b62:	3b da       	rcall	.-2954   	; 0xfda <set_lcd_position>
					send_lcd_string_P(_PROFILE_60_TIT_);				//   
    1b64:	85 ef       	ldi	r24, 0xF5	; 245
    1b66:	90 e0       	ldi	r25, 0x00	; 0
    1b68:	50 da       	rcall	.-2912   	; 0x100a <send_lcd_string_P>
					//---------------------------------------------------------------------------------------

				};
				break;
    1b6a:	14 c0       	rjmp	.+40     	; 0x1b94 <Main_menu+0x3ae>
				//---------------------------------------------------------------------------------------
				case 0x07 :
				{
					//---------------------------------------------------------------------------------------
					set_lcd_position(1,1);
    1b6c:	61 e0       	ldi	r22, 0x01	; 1
    1b6e:	81 e0       	ldi	r24, 0x01	; 1
    1b70:	34 da       	rcall	.-2968   	; 0xfda <set_lcd_position>
					send_lcd_string_P(_PROFILE_70_TIT_);				//   
    1b72:	80 ee       	ldi	r24, 0xE0	; 224
    1b74:	90 e0       	ldi	r25, 0x00	; 0
    1b76:	49 da       	rcall	.-2926   	; 0x100a <send_lcd_string_P>
					//---------------------------------------------------------------------------------------

				};
				break;
    1b78:	0d c0       	rjmp	.+26     	; 0x1b94 <Main_menu+0x3ae>
				//---------------------------------------------------------------------------------------
				case 0x08 :
				{
					//---------------------------------------------------------------------------------------
					set_lcd_position(1,1);
    1b7a:	61 e0       	ldi	r22, 0x01	; 1
    1b7c:	81 e0       	ldi	r24, 0x01	; 1
    1b7e:	2d da       	rcall	.-2982   	; 0xfda <set_lcd_position>
					send_lcd_string_P(_PROFILE_80_TIT_);				//   
    1b80:	8b ec       	ldi	r24, 0xCB	; 203
    1b82:	90 e0       	ldi	r25, 0x00	; 0
    1b84:	42 da       	rcall	.-2940   	; 0x100a <send_lcd_string_P>
					//---------------------------------------------------------------------------------------

				};
				break;
    1b86:	06 c0       	rjmp	.+12     	; 0x1b94 <Main_menu+0x3ae>
				//---------------------------------------------------------------------------------------
				case 0x09 :
				{
					//---------------------------------------------------------------------------------------
					set_lcd_position(1,1);
    1b88:	61 e0       	ldi	r22, 0x01	; 1
    1b8a:	81 e0       	ldi	r24, 0x01	; 1
    1b8c:	26 da       	rcall	.-2996   	; 0xfda <set_lcd_position>
					send_lcd_string_P(_PROFILE_90_TIT_);				//   
    1b8e:	86 eb       	ldi	r24, 0xB6	; 182
    1b90:	90 e0       	ldi	r25, 0x00	; 0
    1b92:	3b da       	rcall	.-2954   	; 0x100a <send_lcd_string_P>
					//---------------------------------------------------------------------------------------
					//---------------------------------------------------------------------------------------
				};	//default: //switch (child)
			};//switch (child)
			//---------------------------------------------------------------------------------------
			set_lcd_position(4,1);
    1b94:	61 e0       	ldi	r22, 0x01	; 1
    1b96:	84 e0       	ldi	r24, 0x04	; 4
    1b98:	20 da       	rcall	.-3008   	; 0xfda <set_lcd_position>
			send_lcd_string_P(_NULL_);				//   
    1b9a:	81 ea       	ldi	r24, 0xA1	; 161
    1b9c:	90 e0       	ldi	r25, 0x00	; 0
    1b9e:	35 da       	rcall	.-2966   	; 0x100a <send_lcd_string_P>
			//---------------------------------------------------------------------------------------
			set_lcd_position(1,1);
    1ba0:	61 e0       	ldi	r22, 0x01	; 1
    1ba2:	81 e0       	ldi	r24, 0x01	; 1
    1ba4:	1a da       	rcall	.-3020   	; 0xfda <set_lcd_position>
			send_lcd_string_P(_cel1_);
    1ba6:	82 e6       	ldi	r24, 0x62	; 98
    1ba8:	92 e0       	ldi	r25, 0x02	; 2
    1baa:	2f da       	rcall	.-2978   	; 0x100a <send_lcd_string_P>
			set_lcd_position(1,20);
    1bac:	64 e1       	ldi	r22, 0x14	; 20
    1bae:	81 e0       	ldi	r24, 0x01	; 1
    1bb0:	14 da       	rcall	.-3032   	; 0xfda <set_lcd_position>
			send_lcd_string_P(_cel2_);
    1bb2:	80 e6       	ldi	r24, 0x60	; 96
    1bb4:	92 e0       	ldi	r25, 0x02	; 2
    1bb6:	29 da       	rcall	.-2990   	; 0x100a <send_lcd_string_P>
			//---------------------------------------------------------------------------------------
			set_lcd_position(2,1);
    1bb8:	61 e0       	ldi	r22, 0x01	; 1
    1bba:	82 e0       	ldi	r24, 0x02	; 2
    1bbc:	0e da       	rcall	.-3044   	; 0xfda <set_lcd_position>
			send_lcd_string_P(_SPEED_1_);				//   
    1bbe:	86 e5       	ldi	r24, 0x56	; 86
    1bc0:	92 e0       	ldi	r25, 0x02	; 2
    1bc2:	23 da       	rcall	.-3002   	; 0x100a <send_lcd_string_P>
			//---------------------------------------------------------------------------------------
			//speed_1=(float)(2.5*(float)speed_1);
			temp=(float)(2.5*(float)speed_1);
    1bc4:	b7 01       	movw	r22, r14
    1bc6:	80 e0       	ldi	r24, 0x00	; 0
    1bc8:	90 e0       	ldi	r25, 0x00	; 0
    1bca:	0e 94 27 05 	call	0xa4e	; 0xa4e <__floatunsisf>
    1bce:	20 e0       	ldi	r18, 0x00	; 0
    1bd0:	30 e0       	ldi	r19, 0x00	; 0
    1bd2:	40 e2       	ldi	r20, 0x20	; 32
    1bd4:	50 e4       	ldi	r21, 0x40	; 64
    1bd6:	0e 94 2b 03 	call	0x656	; 0x656 <__mulsf3>
    1bda:	b6 2e       	mov	r11, r22
    1bdc:	c7 2e       	mov	r12, r23
    1bde:	d8 2e       	mov	r13, r24
    1be0:	e9 2e       	mov	r14, r25
			detect_short_string(temp/100);
    1be2:	20 e0       	ldi	r18, 0x00	; 0
    1be4:	30 e0       	ldi	r19, 0x00	; 0
    1be6:	48 ec       	ldi	r20, 0xC8	; 200
    1be8:	52 e4       	ldi	r21, 0x42	; 66
    1bea:	0e 94 0d 04 	call	0x81a	; 0x81a <__divsf3>
    1bee:	0e 94 52 01 	call	0x2a4	; 0x2a4 <__fixunssfsi>
    1bf2:	48 da       	rcall	.-2928   	; 0x1084 <detect_short_string>
			send_lcd_string_P(_DECIMAL_);
    1bf4:	8e e5       	ldi	r24, 0x5E	; 94
    1bf6:	92 e0       	ldi	r25, 0x02	; 2
    1bf8:	08 da       	rcall	.-3056   	; 0x100a <send_lcd_string_P>
			temp=10*(temp-(((unsigned int)temp/100)*100));
    1bfa:	6b 2d       	mov	r22, r11
    1bfc:	7c 2d       	mov	r23, r12
    1bfe:	8d 2d       	mov	r24, r13
    1c00:	9e 2d       	mov	r25, r14
    1c02:	0e 94 52 01 	call	0x2a4	; 0x2a4 <__fixunssfsi>
    1c06:	9b 01       	movw	r18, r22
    1c08:	36 95       	lsr	r19
    1c0a:	27 95       	ror	r18
    1c0c:	36 95       	lsr	r19
    1c0e:	27 95       	ror	r18
    1c10:	ab e7       	ldi	r26, 0x7B	; 123
    1c12:	b4 e1       	ldi	r27, 0x14	; 20
    1c14:	e1 d1       	rcall	.+962    	; 0x1fd8 <__umulhisi3>
    1c16:	96 95       	lsr	r25
    1c18:	87 95       	ror	r24
    1c1a:	0f 2e       	mov	r0, r31
    1c1c:	f4 e6       	ldi	r31, 0x64	; 100
    1c1e:	ff 2e       	mov	r15, r31
    1c20:	f0 2d       	mov	r31, r0
    1c22:	f8 9e       	mul	r15, r24
    1c24:	b0 01       	movw	r22, r0
    1c26:	f9 9e       	mul	r15, r25
    1c28:	70 0d       	add	r23, r0
    1c2a:	11 24       	eor	r1, r1
    1c2c:	80 e0       	ldi	r24, 0x00	; 0
    1c2e:	90 e0       	ldi	r25, 0x00	; 0
    1c30:	0e 94 27 05 	call	0xa4e	; 0xa4e <__floatunsisf>
    1c34:	9b 01       	movw	r18, r22
    1c36:	ac 01       	movw	r20, r24
    1c38:	6b 2d       	mov	r22, r11
    1c3a:	7c 2d       	mov	r23, r12
    1c3c:	8d 2d       	mov	r24, r13
    1c3e:	9e 2d       	mov	r25, r14
    1c40:	0e 94 ff 02 	call	0x5fe	; 0x5fe <__subsf3>
    1c44:	20 e0       	ldi	r18, 0x00	; 0
    1c46:	30 e0       	ldi	r19, 0x00	; 0
    1c48:	40 e2       	ldi	r20, 0x20	; 32
    1c4a:	51 e4       	ldi	r21, 0x41	; 65
    1c4c:	0e 94 2b 03 	call	0x656	; 0x656 <__mulsf3>
			detect_short_3_string(temp);
    1c50:	0e 94 52 01 	call	0x2a4	; 0x2a4 <__fixunssfsi>
    1c54:	43 da       	rcall	.-2938   	; 0x10dc <detect_short_3_string>
			//detect_short_string(speed_1%100);
			//---------------------------------------------------------------------------------------
			send_lcd_string_P(_MM_MIN_);				//   
    1c56:	8e e3       	ldi	r24, 0x3E	; 62
    1c58:	92 e0       	ldi	r25, 0x02	; 2
    1c5a:	d7 d9       	rcall	.-3154   	; 0x100a <send_lcd_string_P>
			set_lcd_position(3,1);
    1c5c:	61 e0       	ldi	r22, 0x01	; 1
    1c5e:	83 e0       	ldi	r24, 0x03	; 3
    1c60:	bc d9       	rcall	.-3208   	; 0xfda <set_lcd_position>
			send_lcd_string_P(_SPEED_2_);				//   
    1c62:	8e e4       	ldi	r24, 0x4E	; 78
    1c64:	92 e0       	ldi	r25, 0x02	; 2
    1c66:	d1 d9       	rcall	.-3166   	; 0x100a <send_lcd_string_P>
			//---------------------------------------------------------------------------------------
			//speed_2=(speed_2*40)/9;
			temp=(speed_2*9)/40;
    1c68:	98 01       	movw	r18, r16
    1c6a:	22 0f       	add	r18, r18
    1c6c:	33 1f       	adc	r19, r19
    1c6e:	22 0f       	add	r18, r18
    1c70:	33 1f       	adc	r19, r19
    1c72:	22 0f       	add	r18, r18
    1c74:	33 1f       	adc	r19, r19
    1c76:	20 0f       	add	r18, r16
    1c78:	31 1f       	adc	r19, r17
    1c7a:	ad ec       	ldi	r26, 0xCD	; 205
    1c7c:	bc ec       	ldi	r27, 0xCC	; 204
    1c7e:	ac d1       	rcall	.+856    	; 0x1fd8 <__umulhisi3>
    1c80:	96 95       	lsr	r25
    1c82:	87 95       	ror	r24
    1c84:	92 95       	swap	r25
    1c86:	82 95       	swap	r24
    1c88:	8f 70       	andi	r24, 0x0F	; 15
    1c8a:	89 27       	eor	r24, r25
    1c8c:	9f 70       	andi	r25, 0x0F	; 15
    1c8e:	89 27       	eor	r24, r25
    1c90:	bc 01       	movw	r22, r24
    1c92:	80 e0       	ldi	r24, 0x00	; 0
    1c94:	90 e0       	ldi	r25, 0x00	; 0
    1c96:	0e 94 27 05 	call	0xa4e	; 0xa4e <__floatunsisf>
			detect_short_3_string(temp);
    1c9a:	0e 94 52 01 	call	0x2a4	; 0x2a4 <__fixunssfsi>
    1c9e:	1e da       	rcall	.-3012   	; 0x10dc <detect_short_3_string>
			//---------------------------------------------------------------------------------------
			send_lcd_string_P(_RP_MM_);				//   
    1ca0:	85 e3       	ldi	r24, 0x35	; 53
    1ca2:	92 e0       	ldi	r25, 0x02	; 2
    1ca4:	b2 d9       	rcall	.-3228   	; 0x100a <send_lcd_string_P>
			set_lcd_position(4,1);
    1ca6:	61 e0       	ldi	r22, 0x01	; 1
    1ca8:	84 e0       	ldi	r24, 0x04	; 4
    1caa:	97 d9       	rcall	.-3282   	; 0xfda <set_lcd_position>
			send_lcd_string_P(_LENGLH_);				//   
    1cac:	85 e4       	ldi	r24, 0x45	; 69
    1cae:	92 e0       	ldi	r25, 0x02	; 2
    1cb0:	ac d9       	rcall	.-3240   	; 0x100a <send_lcd_string_P>
			//---------------------------------------------------------------------------------------
			//length=(float)(2.5*(float)length);
			temp=(float)(2.5*(float)length);
    1cb2:	be 01       	movw	r22, r28
    1cb4:	80 e0       	ldi	r24, 0x00	; 0
    1cb6:	90 e0       	ldi	r25, 0x00	; 0
    1cb8:	0e 94 27 05 	call	0xa4e	; 0xa4e <__floatunsisf>
    1cbc:	20 e0       	ldi	r18, 0x00	; 0
    1cbe:	30 e0       	ldi	r19, 0x00	; 0
    1cc0:	40 e2       	ldi	r20, 0x20	; 32
    1cc2:	50 e4       	ldi	r21, 0x40	; 64
    1cc4:	0e 94 2b 03 	call	0x656	; 0x656 <__mulsf3>
    1cc8:	06 2f       	mov	r16, r22
    1cca:	17 2f       	mov	r17, r23
    1ccc:	d8 2f       	mov	r29, r24
    1cce:	c9 2f       	mov	r28, r25
			detect_short_string(temp/100);
    1cd0:	20 e0       	ldi	r18, 0x00	; 0
    1cd2:	30 e0       	ldi	r19, 0x00	; 0
    1cd4:	48 ec       	ldi	r20, 0xC8	; 200
    1cd6:	52 e4       	ldi	r21, 0x42	; 66
    1cd8:	0e 94 0d 04 	call	0x81a	; 0x81a <__divsf3>
    1cdc:	0e 94 52 01 	call	0x2a4	; 0x2a4 <__fixunssfsi>
    1ce0:	d1 d9       	rcall	.-3166   	; 0x1084 <detect_short_string>
			send_lcd_string_P(_DECIMAL_);
    1ce2:	8e e5       	ldi	r24, 0x5E	; 94
    1ce4:	92 e0       	ldi	r25, 0x02	; 2
    1ce6:	91 d9       	rcall	.-3294   	; 0x100a <send_lcd_string_P>
			temp=10*(temp-(((unsigned int)temp/100)*100));
    1ce8:	60 2f       	mov	r22, r16
    1cea:	71 2f       	mov	r23, r17
    1cec:	8d 2f       	mov	r24, r29
    1cee:	9c 2f       	mov	r25, r28
    1cf0:	0e 94 52 01 	call	0x2a4	; 0x2a4 <__fixunssfsi>
    1cf4:	9b 01       	movw	r18, r22
    1cf6:	36 95       	lsr	r19
    1cf8:	27 95       	ror	r18
    1cfa:	36 95       	lsr	r19
    1cfc:	27 95       	ror	r18
    1cfe:	ab e7       	ldi	r26, 0x7B	; 123
    1d00:	b4 e1       	ldi	r27, 0x14	; 20
    1d02:	6a d1       	rcall	.+724    	; 0x1fd8 <__umulhisi3>
    1d04:	96 95       	lsr	r25
    1d06:	87 95       	ror	r24
    1d08:	f8 9e       	mul	r15, r24
    1d0a:	b0 01       	movw	r22, r0
    1d0c:	f9 9e       	mul	r15, r25
    1d0e:	70 0d       	add	r23, r0
    1d10:	11 24       	eor	r1, r1
    1d12:	80 e0       	ldi	r24, 0x00	; 0
    1d14:	90 e0       	ldi	r25, 0x00	; 0
    1d16:	0e 94 27 05 	call	0xa4e	; 0xa4e <__floatunsisf>
    1d1a:	9b 01       	movw	r18, r22
    1d1c:	ac 01       	movw	r20, r24
    1d1e:	60 2f       	mov	r22, r16
    1d20:	71 2f       	mov	r23, r17
    1d22:	8d 2f       	mov	r24, r29
    1d24:	9c 2f       	mov	r25, r28
    1d26:	0e 94 ff 02 	call	0x5fe	; 0x5fe <__subsf3>
    1d2a:	20 e0       	ldi	r18, 0x00	; 0
    1d2c:	30 e0       	ldi	r19, 0x00	; 0
    1d2e:	40 e2       	ldi	r20, 0x20	; 32
    1d30:	51 e4       	ldi	r21, 0x41	; 65
    1d32:	0e 94 2b 03 	call	0x656	; 0x656 <__mulsf3>
			detect_short_string(temp);
    1d36:	0e 94 52 01 	call	0x2a4	; 0x2a4 <__fixunssfsi>
    1d3a:	a4 d9       	rcall	.-3256   	; 0x1084 <detect_short_string>
			//---------------------------------------------------------------------------------------
			send_lcd_string_P(_MM_);				//   			
    1d3c:	80 e3       	ldi	r24, 0x30	; 48
    1d3e:	92 e0       	ldi	r25, 0x02	; 2
    1d40:	64 d9       	rcall	.-3384   	; 0x100a <send_lcd_string_P>
			//---------------------------------------------------------------------------------------
		};
		break;
    1d42:	91 c0       	rjmp	.+290    	; 0x1e66 <Main_menu+0x680>
		//---------------------------------------------------------------------------------------
		case 0x02 :
		{
			//---------------------------------------------------------------------------------------
			switch (child)
    1d44:	65 30       	cpi	r22, 0x05	; 5
    1d46:	a1 f1       	breq	.+104    	; 0x1db0 <Main_menu+0x5ca>
    1d48:	68 f4       	brcc	.+26     	; 0x1d64 <Main_menu+0x57e>
    1d4a:	62 30       	cpi	r22, 0x02	; 2
    1d4c:	e1 f0       	breq	.+56     	; 0x1d86 <Main_menu+0x5a0>
    1d4e:	20 f4       	brcc	.+8      	; 0x1d58 <Main_menu+0x572>
    1d50:	61 30       	cpi	r22, 0x01	; 1
    1d52:	09 f0       	breq	.+2      	; 0x1d56 <Main_menu+0x570>
    1d54:	4f c0       	rjmp	.+158    	; 0x1df4 <Main_menu+0x60e>
    1d56:	10 c0       	rjmp	.+32     	; 0x1d78 <Main_menu+0x592>
    1d58:	63 30       	cpi	r22, 0x03	; 3
    1d5a:	e1 f0       	breq	.+56     	; 0x1d94 <Main_menu+0x5ae>
    1d5c:	64 30       	cpi	r22, 0x04	; 4
    1d5e:	09 f0       	breq	.+2      	; 0x1d62 <Main_menu+0x57c>
    1d60:	49 c0       	rjmp	.+146    	; 0x1df4 <Main_menu+0x60e>
    1d62:	1f c0       	rjmp	.+62     	; 0x1da2 <Main_menu+0x5bc>
    1d64:	67 30       	cpi	r22, 0x07	; 7
    1d66:	91 f1       	breq	.+100    	; 0x1dcc <Main_menu+0x5e6>
    1d68:	50 f1       	brcs	.+84     	; 0x1dbe <Main_menu+0x5d8>
    1d6a:	68 30       	cpi	r22, 0x08	; 8
    1d6c:	09 f4       	brne	.+2      	; 0x1d70 <Main_menu+0x58a>
    1d6e:	35 c0       	rjmp	.+106    	; 0x1dda <Main_menu+0x5f4>
    1d70:	69 30       	cpi	r22, 0x09	; 9
    1d72:	09 f0       	breq	.+2      	; 0x1d76 <Main_menu+0x590>
    1d74:	3f c0       	rjmp	.+126    	; 0x1df4 <Main_menu+0x60e>
    1d76:	38 c0       	rjmp	.+112    	; 0x1de8 <Main_menu+0x602>
				break;
				//---------------------------------------------------------------------------------------
				case 0x01 :
				{
					//---------------------------------------------------------------------------------------
					set_lcd_position(1,1);
    1d78:	61 e0       	ldi	r22, 0x01	; 1
    1d7a:	81 e0       	ldi	r24, 0x01	; 1
    1d7c:	2e d9       	rcall	.-3492   	; 0xfda <set_lcd_position>
					send_lcd_string_P(_WORK_10_TIT_);				//   
    1d7e:	8b e1       	ldi	r24, 0x1B	; 27
    1d80:	92 e0       	ldi	r25, 0x02	; 2
    1d82:	43 d9       	rcall	.-3450   	; 0x100a <send_lcd_string_P>
					//---------------------------------------------------------------------------------------
				};
				break;
    1d84:	37 c0       	rjmp	.+110    	; 0x1df4 <Main_menu+0x60e>
				//---------------------------------------------------------------------------------------
				case 0x02 :
				{
					//---------------------------------------------------------------------------------------
					set_lcd_position(1,1);
    1d86:	61 e0       	ldi	r22, 0x01	; 1
    1d88:	81 e0       	ldi	r24, 0x01	; 1
    1d8a:	27 d9       	rcall	.-3506   	; 0xfda <set_lcd_position>
					send_lcd_string_P(_WORK_20_TIT_);				//   
    1d8c:	86 e0       	ldi	r24, 0x06	; 6
    1d8e:	92 e0       	ldi	r25, 0x02	; 2
    1d90:	3c d9       	rcall	.-3464   	; 0x100a <send_lcd_string_P>
					//---------------------------------------------------------------------------------------

				};
				break;
    1d92:	30 c0       	rjmp	.+96     	; 0x1df4 <Main_menu+0x60e>
				//---------------------------------------------------------------------------------------
				case 0x03 :
				{
					//---------------------------------------------------------------------------------------
					set_lcd_position(1,1);
    1d94:	61 e0       	ldi	r22, 0x01	; 1
    1d96:	81 e0       	ldi	r24, 0x01	; 1
    1d98:	20 d9       	rcall	.-3520   	; 0xfda <set_lcd_position>
					send_lcd_string_P(_WORK_30_TIT_);				//   
    1d9a:	81 ef       	ldi	r24, 0xF1	; 241
    1d9c:	91 e0       	ldi	r25, 0x01	; 1
    1d9e:	35 d9       	rcall	.-3478   	; 0x100a <send_lcd_string_P>
					//---------------------------------------------------------------------------------------

				};
				break;
    1da0:	29 c0       	rjmp	.+82     	; 0x1df4 <Main_menu+0x60e>
				//---------------------------------------------------------------------------------------
				case 0x04 :
				{
					//---------------------------------------------------------------------------------------
					set_lcd_position(1,1);
    1da2:	61 e0       	ldi	r22, 0x01	; 1
    1da4:	81 e0       	ldi	r24, 0x01	; 1
    1da6:	19 d9       	rcall	.-3534   	; 0xfda <set_lcd_position>
					send_lcd_string_P(_WORK_40_TIT_);				//   
    1da8:	8c ed       	ldi	r24, 0xDC	; 220
    1daa:	91 e0       	ldi	r25, 0x01	; 1
    1dac:	2e d9       	rcall	.-3492   	; 0x100a <send_lcd_string_P>
					//---------------------------------------------------------------------------------------

				};
				break;
    1dae:	22 c0       	rjmp	.+68     	; 0x1df4 <Main_menu+0x60e>
				//---------------------------------------------------------------------------------------
				case 0x05 :
				{
					//---------------------------------------------------------------------------------------
					set_lcd_position(1,1);
    1db0:	61 e0       	ldi	r22, 0x01	; 1
    1db2:	81 e0       	ldi	r24, 0x01	; 1
    1db4:	12 d9       	rcall	.-3548   	; 0xfda <set_lcd_position>
					send_lcd_string_P(_WORK_50_TIT_);				//   
    1db6:	87 ec       	ldi	r24, 0xC7	; 199
    1db8:	91 e0       	ldi	r25, 0x01	; 1
    1dba:	27 d9       	rcall	.-3506   	; 0x100a <send_lcd_string_P>
					//---------------------------------------------------------------------------------------

				};
				break;
    1dbc:	1b c0       	rjmp	.+54     	; 0x1df4 <Main_menu+0x60e>
				//---------------------------------------------------------------------------------------
				case 0x06 :
				{
					//---------------------------------------------------------------------------------------
					set_lcd_position(1,1);
    1dbe:	61 e0       	ldi	r22, 0x01	; 1
    1dc0:	81 e0       	ldi	r24, 0x01	; 1
    1dc2:	0b d9       	rcall	.-3562   	; 0xfda <set_lcd_position>
					send_lcd_string_P(_WORK_60_TIT_);				//   
    1dc4:	82 eb       	ldi	r24, 0xB2	; 178
    1dc6:	91 e0       	ldi	r25, 0x01	; 1
    1dc8:	20 d9       	rcall	.-3520   	; 0x100a <send_lcd_string_P>
					//---------------------------------------------------------------------------------------

				};
				break;
    1dca:	14 c0       	rjmp	.+40     	; 0x1df4 <Main_menu+0x60e>
				//---------------------------------------------------------------------------------------
				case 0x07 :
				{
					//---------------------------------------------------------------------------------------
					set_lcd_position(1,1);
    1dcc:	61 e0       	ldi	r22, 0x01	; 1
    1dce:	81 e0       	ldi	r24, 0x01	; 1
    1dd0:	04 d9       	rcall	.-3576   	; 0xfda <set_lcd_position>
					send_lcd_string_P(_WORK_70_TIT_);				//   
    1dd2:	8d e9       	ldi	r24, 0x9D	; 157
    1dd4:	91 e0       	ldi	r25, 0x01	; 1
    1dd6:	19 d9       	rcall	.-3534   	; 0x100a <send_lcd_string_P>
					//---------------------------------------------------------------------------------------

				};
				break;
    1dd8:	0d c0       	rjmp	.+26     	; 0x1df4 <Main_menu+0x60e>
				//---------------------------------------------------------------------------------------
				case 0x08 :
				{
					//---------------------------------------------------------------------------------------
					set_lcd_position(1,1);
    1dda:	61 e0       	ldi	r22, 0x01	; 1
    1ddc:	81 e0       	ldi	r24, 0x01	; 1
    1dde:	fd d8       	rcall	.-3590   	; 0xfda <set_lcd_position>
					send_lcd_string_P(_WORK_80_TIT_);				//   
    1de0:	88 e8       	ldi	r24, 0x88	; 136
    1de2:	91 e0       	ldi	r25, 0x01	; 1
    1de4:	12 d9       	rcall	.-3548   	; 0x100a <send_lcd_string_P>
					//---------------------------------------------------------------------------------------

				};
				break;
    1de6:	06 c0       	rjmp	.+12     	; 0x1df4 <Main_menu+0x60e>
				//---------------------------------------------------------------------------------------
				case 0x09 :
				{
					//---------------------------------------------------------------------------------------
					set_lcd_position(1,1);
    1de8:	61 e0       	ldi	r22, 0x01	; 1
    1dea:	81 e0       	ldi	r24, 0x01	; 1
    1dec:	f6 d8       	rcall	.-3604   	; 0xfda <set_lcd_position>
					send_lcd_string_P(_WORK_90_TIT_);				//   
    1dee:	83 e7       	ldi	r24, 0x73	; 115
    1df0:	91 e0       	ldi	r25, 0x01	; 1
    1df2:	0b d9       	rcall	.-3562   	; 0x100a <send_lcd_string_P>
					//---------------------------------------------------------------------------------------
					//---------------------------------------------------------------------------------------
				};	//default: //switch (child)
			};//switch (child)
			//---------------------------------------------------------------------------------------
			set_lcd_position(4,1);
    1df4:	61 e0       	ldi	r22, 0x01	; 1
    1df6:	84 e0       	ldi	r24, 0x04	; 4
    1df8:	f0 d8       	rcall	.-3616   	; 0xfda <set_lcd_position>
			send_lcd_string_P(_NULL_);				//   
    1dfa:	81 ea       	ldi	r24, 0xA1	; 161
    1dfc:	90 e0       	ldi	r25, 0x00	; 0
    1dfe:	05 d9       	rcall	.-3574   	; 0x100a <send_lcd_string_P>
			//---------------------------------------------------------------------------------------
			set_lcd_position(1,1);
    1e00:	61 e0       	ldi	r22, 0x01	; 1
    1e02:	81 e0       	ldi	r24, 0x01	; 1
    1e04:	ea d8       	rcall	.-3628   	; 0xfda <set_lcd_position>
			send_lcd_string_P(_cel1_);
    1e06:	82 e6       	ldi	r24, 0x62	; 98
    1e08:	92 e0       	ldi	r25, 0x02	; 2
    1e0a:	ff d8       	rcall	.-3586   	; 0x100a <send_lcd_string_P>
			set_lcd_position(1,20);
    1e0c:	64 e1       	ldi	r22, 0x14	; 20
    1e0e:	81 e0       	ldi	r24, 0x01	; 1
    1e10:	e4 d8       	rcall	.-3640   	; 0xfda <set_lcd_position>
			send_lcd_string_P(_cel2_);
    1e12:	80 e6       	ldi	r24, 0x60	; 96
    1e14:	92 e0       	ldi	r25, 0x02	; 2
    1e16:	f9 d8       	rcall	.-3598   	; 0x100a <send_lcd_string_P>
			//---------------------------------------------------------------------------------------
			set_lcd_position(2,1);
    1e18:	61 e0       	ldi	r22, 0x01	; 1
    1e1a:	82 e0       	ldi	r24, 0x02	; 2
    1e1c:	de d8       	rcall	.-3652   	; 0xfda <set_lcd_position>
			send_lcd_string_P(_SPEED_1_);				//   
    1e1e:	86 e5       	ldi	r24, 0x56	; 86
    1e20:	92 e0       	ldi	r25, 0x02	; 2
    1e22:	f3 d8       	rcall	.-3610   	; 0x100a <send_lcd_string_P>
			detect_short_3_string(speed_1);
    1e24:	b7 01       	movw	r22, r14
    1e26:	80 e0       	ldi	r24, 0x00	; 0
    1e28:	90 e0       	ldi	r25, 0x00	; 0
    1e2a:	58 d9       	rcall	.-3408   	; 0x10dc <detect_short_3_string>
			send_lcd_string_P(_MM_MIN_);				//   
    1e2c:	8e e3       	ldi	r24, 0x3E	; 62
    1e2e:	92 e0       	ldi	r25, 0x02	; 2
    1e30:	ec d8       	rcall	.-3624   	; 0x100a <send_lcd_string_P>
			set_lcd_position(3,1);
    1e32:	61 e0       	ldi	r22, 0x01	; 1
    1e34:	83 e0       	ldi	r24, 0x03	; 3
    1e36:	d1 d8       	rcall	.-3678   	; 0xfda <set_lcd_position>
			send_lcd_string_P(_SPEED_2_);				//   
    1e38:	8e e4       	ldi	r24, 0x4E	; 78
    1e3a:	92 e0       	ldi	r25, 0x02	; 2
    1e3c:	e6 d8       	rcall	.-3636   	; 0x100a <send_lcd_string_P>
			detect_short_3_string(speed_2);
    1e3e:	b8 01       	movw	r22, r16
    1e40:	80 e0       	ldi	r24, 0x00	; 0
    1e42:	90 e0       	ldi	r25, 0x00	; 0
    1e44:	4b d9       	rcall	.-3434   	; 0x10dc <detect_short_3_string>
			send_lcd_string_P(_RP_MM_);				//   
    1e46:	85 e3       	ldi	r24, 0x35	; 53
    1e48:	92 e0       	ldi	r25, 0x02	; 2
    1e4a:	df d8       	rcall	.-3650   	; 0x100a <send_lcd_string_P>
			set_lcd_position(4,1);
    1e4c:	61 e0       	ldi	r22, 0x01	; 1
    1e4e:	84 e0       	ldi	r24, 0x04	; 4
    1e50:	c4 d8       	rcall	.-3704   	; 0xfda <set_lcd_position>
			send_lcd_string_P(_LENGLH_);				//   
    1e52:	85 e4       	ldi	r24, 0x45	; 69
    1e54:	92 e0       	ldi	r25, 0x02	; 2
    1e56:	d9 d8       	rcall	.-3662   	; 0x100a <send_lcd_string_P>
			detect_short_3_string(length);
    1e58:	be 01       	movw	r22, r28
    1e5a:	80 e0       	ldi	r24, 0x00	; 0
    1e5c:	90 e0       	ldi	r25, 0x00	; 0
    1e5e:	3e d9       	rcall	.-3460   	; 0x10dc <detect_short_3_string>
			send_lcd_string_P(_MM_);				//   
    1e60:	80 e3       	ldi	r24, 0x30	; 48
    1e62:	92 e0       	ldi	r25, 0x02	; 2
    1e64:	d2 d8       	rcall	.-3676   	; 0x100a <send_lcd_string_P>
		{
			//---------------------------------------------------------------------------------------
			//---------------------------------------------------------------------------------------
		};	//default: //switch (Com)
	};		//switch (Com)
};			//Main_menu
    1e66:	df 91       	pop	r29
    1e68:	cf 91       	pop	r28
    1e6a:	1f 91       	pop	r17
    1e6c:	0f 91       	pop	r16
    1e6e:	ff 90       	pop	r15
    1e70:	ef 90       	pop	r14
    1e72:	df 90       	pop	r13
    1e74:	cf 90       	pop	r12
    1e76:	bf 90       	pop	r11
    1e78:	08 95       	ret

00001e7a <__vector_30>:

#include "buart_1.h"

//****************************************************************************************
ISR(USART1_RX_vect)
{
    1e7a:	1f 92       	push	r1
    1e7c:	0f 92       	push	r0
    1e7e:	0f b6       	in	r0, 0x3f	; 63
    1e80:	0f 92       	push	r0
    1e82:	11 24       	eor	r1, r1
    1e84:	0b b6       	in	r0, 0x3b	; 59
    1e86:	0f 92       	push	r0
    1e88:	2f 93       	push	r18
    1e8a:	8f 93       	push	r24
    1e8c:	9f 93       	push	r25
    1e8e:	ef 93       	push	r30
    1e90:	ff 93       	push	r31
	uint8_t byte;
	uint8_t wr = (uart_1_rxwr+1) & UART_BUFEND_1_;
    1e92:	e0 91 16 01 	lds	r30, 0x0116
    1e96:	8e 2f       	mov	r24, r30
    1e98:	8f 5f       	subi	r24, 0xFF	; 255
    1e9a:	83 70       	andi	r24, 0x03	; 3
	byte = UDR1;
    1e9c:	20 91 9c 00 	lds	r18, 0x009C
	if(wr != uart_1_rxrd)
    1ea0:	90 91 17 01 	lds	r25, 0x0117
    1ea4:	89 17       	cp	r24, r25
    1ea6:	31 f0       	breq	.+12     	; 0x1eb4 <__vector_30+0x3a>
	{
		uart_1_rx[uart_1_rxwr] = byte;
    1ea8:	f0 e0       	ldi	r31, 0x00	; 0
    1eaa:	ef 5e       	subi	r30, 0xEF	; 239
    1eac:	fe 4f       	sbci	r31, 0xFE	; 254
    1eae:	20 83       	st	Z, r18
		uart_1_rxwr = wr;
    1eb0:	80 93 16 01 	sts	0x0116, r24
	};
};
    1eb4:	ff 91       	pop	r31
    1eb6:	ef 91       	pop	r30
    1eb8:	9f 91       	pop	r25
    1eba:	8f 91       	pop	r24
    1ebc:	2f 91       	pop	r18
    1ebe:	0f 90       	pop	r0
    1ec0:	0b be       	out	0x3b, r0	; 59
    1ec2:	0f 90       	pop	r0
    1ec4:	0f be       	out	0x3f, r0	; 63
    1ec6:	0f 90       	pop	r0
    1ec8:	1f 90       	pop	r1
    1eca:	18 95       	reti

00001ecc <__vector_31>:
//****************************************************************************************
ISR(USART1_UDRE_vect)
{
    1ecc:	1f 92       	push	r1
    1ece:	0f 92       	push	r0
    1ed0:	0f b6       	in	r0, 0x3f	; 63
    1ed2:	0f 92       	push	r0
    1ed4:	11 24       	eor	r1, r1
    1ed6:	0b b6       	in	r0, 0x3b	; 59
    1ed8:	0f 92       	push	r0
    1eda:	8f 93       	push	r24
    1edc:	9f 93       	push	r25
    1ede:	ef 93       	push	r30
    1ee0:	ff 93       	push	r31
	uint8_t rd = uart_1_txrd;
    1ee2:	80 91 0c 01 	lds	r24, 0x010C
	if(rd != uart_1_txwr)
    1ee6:	90 91 15 01 	lds	r25, 0x0115
    1eea:	89 17       	cp	r24, r25
    1eec:	61 f0       	breq	.+24     	; 0x1f06 <__vector_31+0x3a>
	{
		UDR1 = uart_1_tx[rd];
    1eee:	e8 2f       	mov	r30, r24
    1ef0:	f0 e0       	ldi	r31, 0x00	; 0
    1ef2:	e3 5f       	subi	r30, 0xF3	; 243
    1ef4:	fe 4f       	sbci	r31, 0xFE	; 254
    1ef6:	90 81       	ld	r25, Z
    1ef8:	90 93 9c 00 	sts	0x009C, r25
		uart_1_txrd = (rd+1) & UART_BUFEND_1_;
    1efc:	8f 5f       	subi	r24, 0xFF	; 255
    1efe:	83 70       	andi	r24, 0x03	; 3
    1f00:	80 93 0c 01 	sts	0x010C, r24
		return;
    1f04:	05 c0       	rjmp	.+10     	; 0x1f10 <__vector_31+0x44>
	};
	UCSR1B &= ~(1<<UDRIE1);
    1f06:	ea e9       	ldi	r30, 0x9A	; 154
    1f08:	f0 e0       	ldi	r31, 0x00	; 0
    1f0a:	80 81       	ld	r24, Z
    1f0c:	8f 7d       	andi	r24, 0xDF	; 223
    1f0e:	80 83       	st	Z, r24
};
    1f10:	ff 91       	pop	r31
    1f12:	ef 91       	pop	r30
    1f14:	9f 91       	pop	r25
    1f16:	8f 91       	pop	r24
    1f18:	0f 90       	pop	r0
    1f1a:	0b be       	out	0x3b, r0	; 59
    1f1c:	0f 90       	pop	r0
    1f1e:	0f be       	out	0x3f, r0	; 63
    1f20:	0f 90       	pop	r0
    1f22:	1f 90       	pop	r1
    1f24:	18 95       	reti

00001f26 <uart_1_rx_count>:
//****************************************************************************************
uint8_t uart_1_rx_count()
{
	return (uart_1_rxwr-uart_1_rxrd) & UART_BUFEND_1_;
    1f26:	80 91 16 01 	lds	r24, 0x0116
    1f2a:	90 91 17 01 	lds	r25, 0x0117
    1f2e:	89 1b       	sub	r24, r25
};
    1f30:	83 70       	andi	r24, 0x03	; 3
    1f32:	08 95       	ret

00001f34 <uart_1_read>:
//****************************************************************************************
uint8_t uart_1_read()
{
	uint8_t rd = uart_1_rxrd;
    1f34:	90 91 17 01 	lds	r25, 0x0117
	uint8_t byte;
	if(rd != uart_1_rxwr)
    1f38:	80 91 16 01 	lds	r24, 0x0116
    1f3c:	98 17       	cp	r25, r24
    1f3e:	51 f0       	breq	.+20     	; 0x1f54 <uart_1_read+0x20>
	{
		byte = uart_1_rx[rd];
    1f40:	e9 2f       	mov	r30, r25
    1f42:	f0 e0       	ldi	r31, 0x00	; 0
    1f44:	ef 5e       	subi	r30, 0xEF	; 239
    1f46:	fe 4f       	sbci	r31, 0xFE	; 254
    1f48:	80 81       	ld	r24, Z
		uart_1_rxrd = (rd+1) & UART_BUFEND_1_;
    1f4a:	9f 5f       	subi	r25, 0xFF	; 255
    1f4c:	93 70       	andi	r25, 0x03	; 3
    1f4e:	90 93 17 01 	sts	0x0117, r25
		return byte;
    1f52:	08 95       	ret
	};
	return 0;
    1f54:	80 e0       	ldi	r24, 0x00	; 0
};
    1f56:	08 95       	ret

00001f58 <uart_1_write>:
//****************************************************************************************
void uart_1_write(uint8_t byte)
{
	uint8_t wr = (uart_1_txwr+1) & UART_BUFEND_1_;
    1f58:	e0 91 15 01 	lds	r30, 0x0115
    1f5c:	9e 2f       	mov	r25, r30
    1f5e:	9f 5f       	subi	r25, 0xFF	; 255
    1f60:	93 70       	andi	r25, 0x03	; 3
	if(wr != uart_1_txrd)
    1f62:	20 91 0c 01 	lds	r18, 0x010C
    1f66:	92 17       	cp	r25, r18
    1f68:	59 f0       	breq	.+22     	; 0x1f80 <uart_1_write+0x28>
	{
		uart_1_tx[uart_1_txwr] = byte;
    1f6a:	f0 e0       	ldi	r31, 0x00	; 0
    1f6c:	e3 5f       	subi	r30, 0xF3	; 243
    1f6e:	fe 4f       	sbci	r31, 0xFE	; 254
    1f70:	80 83       	st	Z, r24
		uart_1_txwr = wr;
    1f72:	90 93 15 01 	sts	0x0115, r25
		UCSR1B |= (1<<UDRIE1);
    1f76:	ea e9       	ldi	r30, 0x9A	; 154
    1f78:	f0 e0       	ldi	r31, 0x00	; 0
    1f7a:	80 81       	ld	r24, Z
    1f7c:	80 62       	ori	r24, 0x20	; 32
    1f7e:	80 83       	st	Z, r24
    1f80:	08 95       	ret

00001f82 <uart_1_init>:
	};
};
//****************************************************************************************
void uart_1_init(void)
{
	UBRR1L = F_CPU/UART_BAUD_RATE_1_/16-1;
    1f82:	87 e6       	ldi	r24, 0x67	; 103
    1f84:	80 93 99 00 	sts	0x0099, r24
	UBRR1H = (F_CPU/UART_BAUD_RATE_1_/16-1)>>8;
    1f88:	10 92 98 00 	sts	0x0098, r1
	UCSR1B = (1<<RXCIE1)|(1<<RXEN1)|(1<<TXEN1);
    1f8c:	88 e9       	ldi	r24, 0x98	; 152
    1f8e:	80 93 9a 00 	sts	0x009A, r24
    1f92:	08 95       	ret

00001f94 <__udivmodsi4>:
    1f94:	a1 e2       	ldi	r26, 0x21	; 33
    1f96:	1a 2e       	mov	r1, r26
    1f98:	aa 1b       	sub	r26, r26
    1f9a:	bb 1b       	sub	r27, r27
    1f9c:	fd 01       	movw	r30, r26
    1f9e:	0d c0       	rjmp	.+26     	; 0x1fba <__udivmodsi4_ep>

00001fa0 <__udivmodsi4_loop>:
    1fa0:	aa 1f       	adc	r26, r26
    1fa2:	bb 1f       	adc	r27, r27
    1fa4:	ee 1f       	adc	r30, r30
    1fa6:	ff 1f       	adc	r31, r31
    1fa8:	a2 17       	cp	r26, r18
    1faa:	b3 07       	cpc	r27, r19
    1fac:	e4 07       	cpc	r30, r20
    1fae:	f5 07       	cpc	r31, r21
    1fb0:	20 f0       	brcs	.+8      	; 0x1fba <__udivmodsi4_ep>
    1fb2:	a2 1b       	sub	r26, r18
    1fb4:	b3 0b       	sbc	r27, r19
    1fb6:	e4 0b       	sbc	r30, r20
    1fb8:	f5 0b       	sbc	r31, r21

00001fba <__udivmodsi4_ep>:
    1fba:	66 1f       	adc	r22, r22
    1fbc:	77 1f       	adc	r23, r23
    1fbe:	88 1f       	adc	r24, r24
    1fc0:	99 1f       	adc	r25, r25
    1fc2:	1a 94       	dec	r1
    1fc4:	69 f7       	brne	.-38     	; 0x1fa0 <__udivmodsi4_loop>
    1fc6:	60 95       	com	r22
    1fc8:	70 95       	com	r23
    1fca:	80 95       	com	r24
    1fcc:	90 95       	com	r25
    1fce:	9b 01       	movw	r18, r22
    1fd0:	ac 01       	movw	r20, r24
    1fd2:	bd 01       	movw	r22, r26
    1fd4:	cf 01       	movw	r24, r30
    1fd6:	08 95       	ret

00001fd8 <__umulhisi3>:
    1fd8:	a2 9f       	mul	r26, r18
    1fda:	b0 01       	movw	r22, r0
    1fdc:	b3 9f       	mul	r27, r19
    1fde:	c0 01       	movw	r24, r0
    1fe0:	a3 9f       	mul	r26, r19
    1fe2:	01 d0       	rcall	.+2      	; 0x1fe6 <__umulhisi3+0xe>
    1fe4:	b2 9f       	mul	r27, r18
    1fe6:	70 0d       	add	r23, r0
    1fe8:	81 1d       	adc	r24, r1
    1fea:	11 24       	eor	r1, r1
    1fec:	91 1d       	adc	r25, r1
    1fee:	08 95       	ret

00001ff0 <__clzsi2>:
    1ff0:	06 d0       	rcall	.+12     	; 0x1ffe <__clzhi2>
    1ff2:	84 ff       	sbrs	r24, 4
    1ff4:	08 95       	ret
    1ff6:	cb 01       	movw	r24, r22
    1ff8:	02 d0       	rcall	.+4      	; 0x1ffe <__clzhi2>
    1ffa:	80 5f       	subi	r24, 0xF0	; 240
    1ffc:	08 95       	ret

00001ffe <__clzhi2>:
    1ffe:	aa 27       	eor	r26, r26
    2000:	99 23       	and	r25, r25
    2002:	29 f4       	brne	.+10     	; 0x200e <__clzhi2+0x10>
    2004:	a8 5f       	subi	r26, 0xF8	; 248
    2006:	98 2b       	or	r25, r24
    2008:	11 f4       	brne	.+4      	; 0x200e <__clzhi2+0x10>
    200a:	80 e1       	ldi	r24, 0x10	; 16
    200c:	08 95       	ret
    200e:	90 31       	cpi	r25, 0x10	; 16
    2010:	18 f4       	brcc	.+6      	; 0x2018 <__clzhi2+0x1a>
    2012:	ad 5f       	subi	r26, 0xFD	; 253
    2014:	92 95       	swap	r25
    2016:	a3 95       	inc	r26
    2018:	99 0f       	add	r25, r25
    201a:	e8 f7       	brcc	.-6      	; 0x2016 <__clzhi2+0x18>
    201c:	8a 2f       	mov	r24, r26
    201e:	99 27       	eor	r25, r25
    2020:	08 95       	ret

00002022 <__prologue_saves__>:
    2022:	2f 92       	push	r2
    2024:	3f 92       	push	r3
    2026:	4f 92       	push	r4
    2028:	5f 92       	push	r5
    202a:	6f 92       	push	r6
    202c:	7f 92       	push	r7
    202e:	8f 92       	push	r8
    2030:	9f 92       	push	r9
    2032:	af 92       	push	r10
    2034:	bf 92       	push	r11
    2036:	cf 92       	push	r12
    2038:	df 92       	push	r13
    203a:	ef 92       	push	r14
    203c:	ff 92       	push	r15
    203e:	0f 93       	push	r16
    2040:	1f 93       	push	r17
    2042:	cf 93       	push	r28
    2044:	df 93       	push	r29
    2046:	cd b7       	in	r28, 0x3d	; 61
    2048:	de b7       	in	r29, 0x3e	; 62
    204a:	ca 1b       	sub	r28, r26
    204c:	db 0b       	sbc	r29, r27
    204e:	0f b6       	in	r0, 0x3f	; 63
    2050:	f8 94       	cli
    2052:	de bf       	out	0x3e, r29	; 62
    2054:	0f be       	out	0x3f, r0	; 63
    2056:	cd bf       	out	0x3d, r28	; 61
    2058:	09 94       	ijmp

0000205a <__epilogue_restores__>:
    205a:	2a 88       	ldd	r2, Y+18	; 0x12
    205c:	39 88       	ldd	r3, Y+17	; 0x11
    205e:	48 88       	ldd	r4, Y+16	; 0x10
    2060:	5f 84       	ldd	r5, Y+15	; 0x0f
    2062:	6e 84       	ldd	r6, Y+14	; 0x0e
    2064:	7d 84       	ldd	r7, Y+13	; 0x0d
    2066:	8c 84       	ldd	r8, Y+12	; 0x0c
    2068:	9b 84       	ldd	r9, Y+11	; 0x0b
    206a:	aa 84       	ldd	r10, Y+10	; 0x0a
    206c:	b9 84       	ldd	r11, Y+9	; 0x09
    206e:	c8 84       	ldd	r12, Y+8	; 0x08
    2070:	df 80       	ldd	r13, Y+7	; 0x07
    2072:	ee 80       	ldd	r14, Y+6	; 0x06
    2074:	fd 80       	ldd	r15, Y+5	; 0x05
    2076:	0c 81       	ldd	r16, Y+4	; 0x04
    2078:	1b 81       	ldd	r17, Y+3	; 0x03
    207a:	aa 81       	ldd	r26, Y+2	; 0x02
    207c:	b9 81       	ldd	r27, Y+1	; 0x01
    207e:	ce 0f       	add	r28, r30
    2080:	d1 1d       	adc	r29, r1
    2082:	0f b6       	in	r0, 0x3f	; 63
    2084:	f8 94       	cli
    2086:	de bf       	out	0x3e, r29	; 62
    2088:	0f be       	out	0x3f, r0	; 63
    208a:	cd bf       	out	0x3d, r28	; 61
    208c:	ed 01       	movw	r28, r26
    208e:	08 95       	ret

00002090 <_exit>:
    2090:	f8 94       	cli

00002092 <__stop_program>:
    2092:	ff cf       	rjmp	.-2      	; 0x2092 <__stop_program>
